000000 B2 L  Bi L  B  L  NP NP NP 
000001 R  D2 L2 Ri B  L2 NP NP NP 
000002 U2 R  Fi D2 Ri U2 NP NP NP 
000003 B2 L  Ui L2 U  Bi L2 NP NP 
000004 U2 R  D2 Fi Ri U2 NP NP NP 
000005 Ri B  U2 L2 U2 R  NP NP NP 
000006 F  Ri U2 L2 R  Fi NP NP NP 
000007 B2 L  B2 Di B  L2 NP NP NP 
000008 Ri Bi R  B2 D2 Li NP NP NP 
000009 B  Li B  Li NP NP NP NP NP 
000010 B  L2 Ri Bi R  D2 NP NP NP 
000011 B2 L  Bi L2 Bi NP NP NP NP 
000012 U2 R  Fi D  Ri U2 D  NP NP 
000013 B2 L  Bi L2 B2 NP NP NP NP 
000014 B  Li B  Li Bi NP NP NP NP 
000015 B  Li B  Li B2 NP NP NP NP 
000016 B2 L  B  D  B2 L2 NP NP NP 
000017 B2 L  Bi L2 B  NP NP NP NP 
000018 R  Di Ri B  L2 Di NP NP NP 
000019 B2 L  Bi L2 NP NP NP NP NP 
000020 B  Li B  Li B  NP NP NP NP 
000021 Bi D2 B  L2 B  L2 Di NP NP 
000022 Bi U2 R2 F2 D  R2 U2 NP NP 
000023 B  Ui L2 U2 Bi Ui NP NP NP 
000024 B  L2 Bi D2 Bi D  NP NP NP 
000025 U  B  Ui B  L2 NP NP NP NP 
000026 B  L2 B2 Di B  D2 NP NP NP 
000027 B  L2 B2 D  NP NP NP NP NP 
000028 B  L2 D  B2 D2 B  Di NP NP 
000029 B  Ui L  D  L  U  NP NP NP 
000030 B  Ui L  D2 L  U  NP NP NP 
000031 B  L2 D  B2 D  NP NP NP NP 
000032 B  Ui L2 U  B  NP NP NP NP 
000033 B  Ui Li U  Li B2 NP NP NP 
000034 B  Ui L2 U  NP NP NP NP NP 
000035 B  L2 B  Di B  D  NP NP NP 
000036 B  Li B2 Li D  B  NP NP NP 
000037 B  L2 D2 B2 D  NP NP NP NP 
000038 B  Ui L2 U  Bi NP NP NP NP 
000039 B  Ui Li U  Li NP NP NP NP 
000040 B  Ui L2 U  B2 NP NP NP NP 
000041 B  Li B2 Li D  NP NP NP NP 
000042 R  D  L  Ri D2 B  L2 NP NP 
000043 R  D2 L2 Ri B  L2 D  NP NP 
000044 B2 Li Bi Di L2 D2 NP NP NP 
000045 R  Di R2 B  L2 R  NP NP NP 
000046 B  L  B  Li D  L2 NP NP NP 
000047 B  Li B  Li Bi D  NP NP NP 
000048 U  B2 Ui L  B  L2 D  NP NP 
000049 B2 Li Bi D  L2 NP NP NP NP 
000050 B  L2 B  Di Li D  L  NP NP 
000051 U2 R  D2 Fi D  Ri U2 NP NP 
000052 R  Di Ri B  L2 Bi NP NP NP 
000053 B2 L  Bi L2 D  Bi NP NP NP 
000054 B  Li B  Li D  NP NP NP NP 
000055 U2 R  Fi Di Ri U2 NP NP NP 
000056 B2 L  Bi L2 Bi D  NP NP NP 
000057 B  Li B  Li B2 D  NP NP NP 
000058 R  Di Ri B  L2 B  NP NP NP 
000059 B2 L  Bi L2 B  D  NP NP NP 
000060 R  Di Ri B  L2 NP NP NP NP 
000061 B2 L  Bi L2 D  NP NP NP NP 
000062 B  Li B  Li B  D  NP NP NP 
000063 Bi D2 B  L2 B  L2 NP NP NP 
000064 Bi D2 B2 L  Bi L  NP NP NP 
000065 Ri Bi R  Bi D2 Li NP NP NP 
000066 Bi D2 Bi L  Bi L2 NP NP NP 
000067 B  Ui L2 U  D  NP NP NP NP 
000068 B  L2 B  Di B  D2 NP NP NP 
000069 U  B  Ui B  L2 D  NP NP NP 
000070 B  L2 B2 Di B  Di NP NP NP 
000071 B  L2 Bi D2 Bi D2 NP NP NP 
000072 B  Li B2 Li D2 Bi NP NP NP 
000073 B  L2 B2 D2 NP NP NP NP NP 
000074 B  L2 D  B2 D2 B  NP NP NP 
000075 B  L2 B2 D2 Bi NP NP NP NP 
000076 B  L2 D  B2 D2 NP NP NP NP 
000077 Bi D2 Li B2 L2 NP NP NP NP 
000078 B  Li B2 Li D2 B  NP NP NP 
000079 Bi D2 B2 L2 NP NP NP NP NP 
000080 B  Ui L2 U  Bi D  NP NP NP 
000081 B  L2 B2 D2 B  NP NP NP NP 
000082 B  L2 Di B2 D2 NP NP NP NP 
000083 B  Li B2 Li D2 NP NP NP NP 
000084 R  D  L  Ri Di B  L2 NP NP 
000085 R2 F2 Li Fi U2 Fi R2 NP NP 
000086 B2 Li Bi Di L2 Di NP NP NP 
000087 B  Li B  Li D2 NP NP NP NP 
000088 B  L2 Ri Bi R  NP NP NP NP 
000089 B2 L  Bi L2 Bi D2 NP NP NP 
000090 F  B2 Li F2 D2 F  NP NP NP 
000091 B  Li B  Li Bi D2 NP NP NP 
000092 U2 R  Fi D  Ri U2 Di NP NP 
000093 Bi Ri B  R  B2 L2 NP NP NP 
000094 U  B2 Ui L  B  L2 D2 NP NP 
000095 B2 Li Bi D2 L2 NP NP NP NP 
000096 F  U2 L  F2 R  F  B2 NP NP 
000097 B2 Li Fi D2 F  NP NP NP NP 
000098 B  L2 D  Ri Bi R  NP NP NP 
000099 B  Li B  Li B2 D2 NP NP NP 
000100 F  U2 L  F2 R  F  B  NP NP 
000101 B2 L  Bi L2 B  D2 NP NP NP 
000102 F  U2 L  F2 R  F  NP NP NP 
000103 B2 L  Bi L2 D2 NP NP NP NP 
000104 B  Li B  Li B  D2 NP NP NP 
000105 R  D  L  R2 B  L2 R  NP NP 
000106 Bi D2 L2 B2 D  L2 NP NP NP 
000107 U2 R  Di Fi D2 Ri U2 NP NP 
000108 B  L2 B2 D2 Bi D  NP NP NP 
000109 B  L  B2 Di L  NP NP NP NP 
000110 B  Ui L2 U  B  D2 NP NP NP 
000111 Bi Di B2 L2 NP NP NP NP NP 
000112 B  L2 B  Di B  Di NP NP NP 
000113 B  Ui Li U  Li B2 D2 NP NP 
000114 B  L2 Bi D2 Bi Di NP NP NP 
000115 U  B  Ui B  L2 D2 NP NP NP 
000116 B  L2 B2 Di B  NP NP NP NP 
000117 B  L2 D2 B2 Di B  NP NP NP 
000118 B  L2 B2 Di NP NP NP NP NP 
000119 B  Li B2 Li Di B2 NP NP NP 
000120 B  Li B2 Li Di B  NP NP NP 
000121 B  L2 D2 B2 Di NP NP NP NP 
000122 B  L2 B2 Di Bi NP NP NP NP 
000123 B  Ui Li U  Li D2 NP NP NP 
000124 B  L2 B2 Di B2 NP NP NP NP 
000125 B  Li B2 Li Di NP NP NP NP 
000126 Bi D  B2 L  B  L  NP NP NP 
000127 R  D2 L2 Ri B  L2 Di NP NP 
000128 B2 Li Bi Di L2 NP NP NP NP 
000129 R  D  Ri B  L2 D2 Bi NP NP 
000130 U2 R  D  Fi Ri U2 NP NP NP 
000131 B  Ui Li U  B2 Li Bi NP NP 
000132 B  L2 Ri Bi R  D  NP NP NP 
000133 B2 L  Bi L2 Bi Di NP NP NP 
000134 B  Li B  Li Di NP NP NP NP 
000135 U2 R  Fi D  Ri U2 NP NP NP 
000136 B2 L  Bi L2 B2 Di NP NP NP 
000137 B  Li B  Li Bi Di NP NP NP 
000138 B2 Li Fi Bi Di F  L2 NP NP 
000139 U  B2 Ui L  B  L2 Di NP NP 
000140 R  D  Ri B  L2 Bi NP NP NP 
000141 B  Li B  Li B2 Di NP NP NP 
000142 B2 L2 Bi L  Di L  NP NP NP 
000143 B2 L  Bi L2 B  Di NP NP NP 
000144 R  Di Ri B  L2 D2 NP NP NP 
000145 B2 L  Bi L2 Di NP NP NP NP 
000146 B  Li B  Li B  Di NP NP NP 
000147 R2 U2 R2 Bi R2 Fi R2 NP NP 
000148 U2 R2 Fi D  R2 U2 B2 NP NP 
000149 B  L2 D2 Li B2 L  NP NP NP 
000150 B  L2 D2 Bi D  Bi NP NP NP 
000151 B  L2 B2 NP NP NP NP NP NP 
000152 B  L2 Di B  D2 B  NP NP NP 
000153 B  L2 D  B2 NP NP NP NP NP 
000154 B  Ui L2 U  B  Di NP NP NP 
000155 B  L2 B2 D2 Bi D2 NP NP NP 
000156 B  L2 Di L  B2 Li NP NP NP 
000157 Ri B  L2 R  Bi NP NP NP NP 
000158 B  L2 B  Di B  NP NP NP NP 
000159 B  L2 Bi D2 Bi NP NP NP NP 
000160 U  B  Ui B  L2 Di NP NP NP 
000161 B  L2 R  D2 Ri B2 NP NP NP 
000162 B  L2 R  D  Ri B2 NP NP NP 
000163 B  L2 D2 B2 NP NP NP NP NP 
000164 B  L2 Bi Di Bi NP NP NP NP 
000165 B  L2 B  D2 B  NP NP NP NP 
000166 B  L2 Di B2 NP NP NP NP NP 
000167 B  Li B2 Li NP NP NP NP NP 
000168 B2 L2 Bi Ui L2 U  NP NP NP 
000169 U2 R2 Fi D  R2 U2 B  NP NP 
000170 R2 U2 Fi R  U2 R  B  NP NP 
000171 B2 L2 Bi L2 D  NP NP NP NP 
000172 B  L2 B  NP NP NP NP NP NP 
000173 B  L2 Di B  D2 NP NP NP NP 
000174 B  L2 B  D  NP NP NP NP NP 
000175 B  L2 Di B  Di NP NP NP NP 
000176 B2 L2 Bi L2 D2 NP NP NP NP 
000177 B  Li B2 Li Bi NP NP NP NP 
000178 B  L2 B  D2 NP NP NP NP NP 
000179 B  L2 Di B  NP NP NP NP NP 
000180 B2 L2 Bi L2 NP NP NP NP NP 
000181 B  L2 B  Di NP NP NP NP NP 
000182 B  L2 Di B  D  NP NP NP NP 
000183 B  L2 R  D2 Ri B  NP NP NP 
000184 B  L2 Bi D2 B2 NP NP NP NP 
000185 U  B  Ui B  L2 Di Bi NP NP 
000186 B  L2 D2 B  NP NP NP NP NP 
000187 B  L2 Bi Di B2 NP NP NP NP 
000188 B2 Ui L2 U  Bi L2 NP NP NP 
000189 Bi D  Li B2 Di L2 NP NP NP 
000190 B  Li B2 L2 D  B  L  NP NP 
000191 B2 Li Bi Di L2 Bi NP NP NP 
000192 Bi D  Li D2 B2 L2 NP NP NP 
000193 B  L  B2 D  L  NP NP NP NP 
000194 B  Ui Li U  B2 Li B2 NP NP 
000195 B  L  B2 D  L  D  NP NP NP 
000196 B2 L  Bi L2 Bi Di Bi NP NP 
000197 B  Li B  Li Di Bi NP NP NP 
000198 Bi D  Li B2 D2 L2 NP NP NP 
000199 B  L  B2 D  L  D2 NP NP NP 
000200 B2 L  Bi L2 Di Bi NP NP NP 
000201 B2 L  Bi L2 B2 Di Bi NP NP 
000202 B  L  B2 D  L  Di NP NP NP 
000203 U2 R  Fi D  Ri U2 Bi NP NP 
000204 Bi D  Li B2 L2 NP NP NP NP 
000205 B  Li B2 L2 D  B2 L  NP NP 
000206 Bi D  B  Li D2 B  L2 NP NP 
000207 Bi D  Li Di B2 L2 NP NP NP 
000208 B  Li Ui L  U  L2 NP NP NP 
000209 B  Li B2 L2 D  L  NP NP NP 
000210 B  L2 Di Bi U  B  Ui NP NP 
000211 Bi D2 B2 Di L2 NP NP NP NP 
000212 B  L2 B  U  Di Bi Ui NP NP 
000213 Bi D  B2 Li B2 Li NP NP NP 
000214 U  B  Ui L2 B  L2 NP NP NP 
000215 Bi D  B2 L2 Bi D2 NP NP NP 
000216 Bi D  B2 L2 B2 D2 NP NP NP 
000217 Bi D  B2 L2 Bi Di NP NP NP 
000218 R2 U2 F2 U  F  U  R2 NP NP 
000219 B2 Di B  D  Bi L2 NP NP NP 
000220 Bi D  B2 L2 B2 Di NP NP NP 
000221 Bi D  B2 L2 Bi NP NP NP NP 
000222 Bi D  B2 Li B  Li NP NP NP 
000223 Bi D  B2 L2 B2 NP NP NP NP 
000224 Bi D  B2 L2 Bi D  NP NP NP 
000225 B  L2 Bi U  D2 B  Ui NP NP 
000226 F  U  B  U  F  U2 F2 NP NP 
000227 Bi D  B2 L2 B  NP NP NP NP 
000228 F  Ui B  U2 Bi U  Fi NP NP 
000229 Bi D  B2 L2 NP NP NP NP NP 
000230 B  Li B2 L  D  L2 NP NP NP 
000231 R  D  L  Ri D  B  L2 NP NP 
000232 B2 L  B2 D2 L2 B  L2 NP NP 
000233 B  L2 Bi D2 Li B2 L  NP NP 
000234 Ri U2 Bi R2 Fi Ri Di NP NP 
000235 B  L  B  L  NP NP NP NP NP 
000236 B2 Li Bi L2 B2 D2 NP NP NP 
000237 B  L  B  L  D  NP NP NP NP 
000238 B2 Li Bi L2 B2 Di NP NP NP 
000239 Ri U2 Bi R2 Fi Ri NP NP NP 
000240 B  L  B  L2 B  Li NP NP NP 
000241 B  L  B  L  D2 NP NP NP NP 
000242 B2 Li Bi L2 B2 NP NP NP NP 
000243 Ri F  U2 Fi R  B2 NP NP NP 
000244 B  L  B  L  Di NP NP NP NP 
000245 B2 Li Bi L2 B2 D  NP NP NP 
000246 U2 Fi Li Ri F  L  U2 NP NP 
000247 Ri F  U2 Fi R  B  NP NP NP 
000248 B2 Li Bi L2 NP NP NP NP NP 
000249 Ri F  U2 Fi R  NP NP NP NP 
000250 B2 Li Bi L2 Bi NP NP NP NP 
000251 B  L  B  L2 B2 Li NP NP NP 
000252 R2 F  L2 U2 Fi R2 NP NP NP 
000253 B  Li B2 L2 B  L  NP NP NP 
000254 U2 R  D2 Fi D2 Ri U2 NP NP 
000255 B  L2 D2 Bi D  NP NP NP NP 
000256 B  L2 Bi NP NP NP NP NP NP 
000257 B  L2 D2 L  Bi Li NP NP NP 
000258 B  L2 Bi D  NP NP NP NP NP 
000259 R2 F  Li U2 Fi R2 NP NP NP 
000260 B  L2 D2 Bi D2 NP NP NP NP 
000261 B  L2 D2 Bi Di NP NP NP NP 
000262 B  L2 Bi D2 NP NP NP NP NP 
000263 Ui L2 U  Fi D  F  NP NP NP 
000264 B  L2 D2 Bi NP NP NP NP NP 
000265 B  L2 Bi Di NP NP NP NP NP 
000266 R2 F  U2 L  Fi R2 NP NP NP 
000267 B  Li B2 Li B  NP NP NP NP 
000268 F  U2 F  U2 F2 NP NP NP NP 
000269 B  L2 Di Bi NP NP NP NP NP 
000270 Ri B  L2 R  NP NP NP NP NP 
000271 B  L2 B  Di B2 NP NP NP NP 
000272 B  L2 Di L  Bi Li NP NP NP 
000273 R  D  L  Ri B  L2 NP NP NP 
000274 R  D  Li Ri B  Di L2 NP NP 
000275 B2 Li Bi Di L2 B  NP NP NP 
000276 R  D  Ri B  L2 D2 NP NP NP 
000277 B  L  B2 D  L  B2 NP NP NP 
000278 B  Ui Li U  B2 Li NP NP NP 
000279 R  D  Li Ri B  D  L2 NP NP 
000280 R  D  L2 Ri B  L2 D2 NP NP 
000281 R  D  Ri B  L2 Di NP NP NP 
000282 R  D  Ri B  L2 NP NP NP NP 
000283 R  D  Li Ri B  D2 L2 NP NP 
000284 R  D  L2 Ri B  L2 Di NP NP 
000285 R  D  Ri B  L2 D  NP NP NP 
000286 B  L2 B2 R  Di Ri NP NP NP 
000287 R  D  L2 Ri B  L2 NP NP NP 
000288 R  D  Ri B  D2 L2 NP NP NP 
000289 R  D  Li Ri B  L2 NP NP NP 
000290 B2 L  Bi L2 Di B  NP NP NP 
000291 B  Ui Li U2 B2 Ui Li NP NP 
000292 B  U2 Ri Ui R  Ui L2 NP NP 
000293 U  B  Ui B  Li B2 Li NP NP 
000294 F  U2 R2 Fi D2 B  U2 NP NP 
000295 U2 R2 Fi D  R2 U2 NP NP NP 
000296 R2 U2 Fi R  U2 R  NP NP NP 
000297 B  L2 F  L2 Fi D  NP NP NP 
000298 B  L2 NP NP NP NP NP NP NP 
000299 B  L2 Bi Di B  D2 NP NP NP 
000300 B  L2 D  NP NP NP NP NP NP 
000301 F2 Li B  L  F2 L  NP NP NP 
000302 F  B  L  Fi D  L  NP NP NP 
000303 B  L2 R  D  Ri NP NP NP NP 
000304 B  L2 D2 NP NP NP NP NP NP 
000305 B  L2 Bi Di B  NP NP NP NP 
000306 B  L2 F  L2 Fi NP NP NP NP 
000307 B  L2 Di NP NP NP NP NP NP 
000308 B  Li B2 Li B2 NP NP NP NP 
000309 B  L2 U  D2 B  Ui NP NP NP 
000310 R2 U2 Fi U2 R2 NP NP NP NP 
000311 B  L2 F  Li Fi NP NP NP NP 
000312 B  L2 Bi D2 B  NP NP NP NP 
000313 B  R2 Di L2 D  R2 NP NP NP 
000314 B  L2 R  D2 Ri NP NP NP NP 
000315 R  D  L  Ri B  L2 B  NP NP 
000316 Ri Ui Bi U  B  R  D  L2 NP 
000317 B2 Li Bi Di L2 B2 NP NP NP 
000318 R  D  Ri B  L2 D2 B  NP NP 
000319 B  L  B2 D  L  Bi NP NP NP 
000320 B  Ui Li U  B2 Li B  NP NP 
000321 B  Ui Li U  Bi Li Di NP NP 
000322 B2 L  Bi L2 Bi Di B2 NP NP 
000323 B  Li B  Li Di B2 NP NP NP 
000324 R  D  L2 Ri B  L2 B  NP NP 
000325 B  Ui Li U  Bi Li NP NP NP 
000326 Bi D  B2 L  Bi L  NP NP NP 
000327 Bi D  Bi L  Bi L2 NP NP NP 
000328 B2 L  Bi L2 Di B2 NP NP NP 
000329 R  D  Ri B  D2 L2 B  NP NP 
000330 U2 R  Fi D  Ri U2 B2 NP NP 
000331 B2 L  Bi L2 B2 Di B2 NP NP 
000332 U  B  Ui B2 Li Bi L2 NP NP 
000333 U  Fi Ri F  Ui Di Li NP NP 
000334 U  B  Ui L2 B2 L  Bi L2 NP 
000335 R  D  Ri B  L2 B  NP NP NP 
000336 B2 L2 B2 Ui L  U  NP NP NP 
000337 B2 D  Li NP NP NP NP NP NP 
000338 Fi B2 D  F  Ui Li U  NP NP 
000339 Ui L  U  B  L  B  Li NP NP 
000340 Ui L  U  B2 Di F  Li Fi NP 
000341 B2 Li D  Li Di NP NP NP NP 
000342 B2 D  L  D2 L2 NP NP NP NP 
000343 F  Di B2 D  Fi Li NP NP NP 
000344 B2 L  Di Li D2 Li NP NP NP 
000345 B2 D  L2 B2 L  NP NP NP NP 
000346 B2 D  L  Di L2 NP NP NP NP 
000347 B2 D  L2 B  Di L  NP NP NP 
000348 Fi B2 D  F  Li B  NP NP NP 
000349 B2 D  L2 B2 D2 L  NP NP NP 
000350 B2 D  L2 B2 L  Bi NP NP NP 
000351 B2 D  L2 B2 L  B2 NP NP NP 
000352 Fi B2 D  F  Li NP NP NP NP 
000353 B2 D  L2 B2 D  L  NP NP NP 
000354 Fi B2 D  F  Li Bi NP NP NP 
000355 U  Ri U  F2 R  U2 Di NP NP 
000356 B2 D  L2 Bi L  NP NP NP NP 
000357 Ui L  U2 Bi D  Bi Ui NP NP 
000358 B2 D  B  Li D  NP NP NP NP 
000359 Ui L  U  Bi D  Li B  L  NP 
000360 Ui Li U  Di L2 Bi D  NP NP 
000361 Ui L  U  Bi Di Bi D2 NP NP 
000362 Ui L2 U  D2 Bi D2 Li Di NP 
000363 U  B  U2 Li U  D2 L2 NP NP 
000364 U  B  Ui B2 Li D  Li NP NP 
000365 Ui L  U  B  D  B2 D  NP NP 
000366 Bi D  Bi D  Li Di NP NP NP 
000367 Ui L  U  Bi D  Bi NP NP NP 
000368 Ri Ui L2 B  U  Li R  NP NP 
000369 Ui L  U  Bi D  B2 NP NP NP 
000370 B2 L  D  Li B  D  NP NP NP 
000371 Ui L  U2 Bi Ui D  NP NP NP 
000372 Ui L  U  B  Di B2 D  NP NP 
000373 U  Bi U2 L  U  D  NP NP NP 
000374 Bi D  Bi L  D  Li NP NP NP 
000375 Ui L  U  Bi D  NP NP NP NP 
000376 B2 L  D  Li B  D  B2 NP NP 
000377 B  Li Fi B2 D  F  NP NP NP 
000378 B2 L2 U2 L  D  Li U2 NP NP 
000379 B2 D  Li D  NP NP NP NP NP 
000380 B  Ui F  L  Ui Fi U2 NP NP 
000381 Ri Ui B2 L  U  R  D2 NP NP 
000382 U  B2 U2 L  U  B2 D2 NP NP 
000383 U  R  B2 Di Ri Ui L2 NP NP 
000384 Bi R  Fi Di R  F  R2 NP NP 
000385 B2 Li D  Li NP NP NP NP NP 
000386 B2 D2 R  Di Li D  Ri NP NP 
000387 U  Ri U  L  F2 U2 R  NP NP 
000388 F  B2 Li Fi D  Li NP NP NP 
000389 U  Ri U  F2 R  U2 Bi NP NP 
000390 B2 Li D2 B2 Di Li NP NP NP 
000391 B2 D  L  Di L2 D  NP NP NP 
000392 B2 Li Di L  D2 Li NP NP NP 
000393 Ui L  U  B2 Li D  L  NP NP 
000394 Ui L  U  R  Di Ri NP NP NP 
000395 U  Ri U  F2 Ui R  Ui NP NP 
000396 Ui L  U  R  Di Ri Bi NP NP 
000397 U  Ri U  F2 R  U2 NP NP NP 
000398 Ri U  Ri F2 Ui R2 NP NP NP 
000399 B  U  Bi Ui B2 L  D2 NP NP 
000400 B2 D  B  Li D2 NP NP NP NP 
000401 R2 Ui L2 F  U  Li R2 NP NP 
000402 Bi D  Bi D  B  Li NP NP NP 
000403 B2 L  D  Li B  D2 NP NP NP 
000404 Ui L  U2 Bi Ui D2 NP NP NP 
000405 B2 D  B  L  D2 L2 NP NP NP 
000406 Ui L2 U  D2 Bi D2 Li NP NP 
000407 Ui Li U  Di L2 Bi D2 NP NP 
000408 B2 Di B  D2 Li Bi NP NP NP 
000409 Ui L  U  Bi D2 Bi NP NP NP 
000410 Bi D  Bi D  B2 Li NP NP NP 
000411 Bi D  Bi D  Li NP NP NP NP 
000412 B2 Di B  D2 B  Li NP NP NP 
000413 R2 Ui F  L  U  R2 NP NP NP 
000414 B2 Di B  D2 Li B  NP NP NP 
000415 U  Bi U2 L  U  D2 NP NP NP 
000416 U  B  Ui B2 L2 D  Li NP NP 
000417 Ui L  U  Bi D2 NP NP NP NP 
000418 Bi D  Bi D  Bi Li NP NP NP 
000419 B2 Di B  D2 Li NP NP NP NP 
000420 U  Fi R  F  Ui B2 L2 NP NP 
000421 B2 D  Li D2 NP NP NP NP NP 
000422 Ui F2 L  Ui D2 R  U2 NP NP 
000423 B2 D  L2 B2 L  D2 NP NP NP 
000424 B2 D  L  Di L2 D2 NP NP NP 
000425 Ri U  Ri Ui R2 B2 L2 NP NP 
000426 U  B2 U2 L  U  B2 Di NP NP 
000427 B2 Di Li Bi D2 Li NP NP NP 
000428 Ri Ui B2 L  U  R  Di NP NP 
000429 U2 F  Ui R  U  Fi U2 NP NP 
000430 U2 F  R  U  Fi U  B2 NP NP 
000431 B2 Li D  Li D  NP NP NP NP 
000432 U2 F  R  U  Fi U  B  NP NP 
000433 B2 Li D  Li D  Bi NP NP NP 
000434 R  Di Ri B2 D  Li NP NP NP 
000435 R2 F2 U  Ri F2 Ri NP NP NP 
000436 U2 F  R  U  Fi U  NP NP NP 
000437 B2 Li D  Li D  B2 NP NP NP 
000438 U  Fi R  F  B2 Ui L2 NP NP 
000439 U2 F2 D  R  F2 U2 NP NP NP 
000440 B2 D  L2 Bi L  D2 NP NP NP 
000441 B2 L2 Fi D  F  Li NP NP NP 
000442 B2 D  B  Li Di NP NP NP NP 
000443 Bi D2 L  Bi Li D  Li NP NP 
000444 Bi D  Bi D  Li D  NP NP NP 
000445 Ui L  U  B2 Di B  Di NP NP 
000446 R2 Ui F  L  U  R2 D  NP NP 
000447 Bi D2 Bi D  Li NP NP NP NP 
000448 Ui L  U2 Bi Ui Di NP NP NP 
000449 Ui L  U  Bi D  B2 D2 NP NP 
000450 B  Li B2 Di Bi L2 NP NP NP 
000451 Ui L  U  Bi Di Bi NP NP NP 
000452 Bi D2 L  Bi D  Li B  NP NP 
000453 Ui L  U  Bi Di B2 NP NP NP 
000454 Bi D2 L  Bi D  Li NP NP NP 
000455 Bi D2 Bi L2 D  Li NP NP NP 
000456 Ui L  U  B  Di B2 Di NP NP 
000457 U  Bi U2 L  U  Di NP NP NP 
000458 R2 U  Fi U2 L  U  R2 NP NP 
000459 Ui L  U  Bi Di NP NP NP NP 
000460 Bi U2 Fi R  Di F  U2 NP NP 
000461 B2 Di B  D2 Li D  NP NP NP 
000462 U2 F2 R  D  R  F2 U2 NP NP 
000463 B2 D  Li Di NP NP NP NP NP 
000464 B2 L2 D  L  Di L2 NP NP NP 
000465 R  D  L  Ri Ui L  U  NP NP 
000466 Ri B2 R2 D  Li Ri NP NP NP 
000467 F  Di B2 D  Fi Li Di NP NP 
000468 B2 D  L  Di L2 Di NP NP NP 
000469 B2 L  D  B2 L2 Di L  NP NP 
000470 B2 D  L2 B2 L  Di NP NP NP 
000471 Ri Ui B2 L  U  R  NP NP NP 
000472 U  B2 U2 L  U  B2 NP NP NP 
000473 B2 D  L2 B2 L  Bi Di NP NP 
000474 Ui L  U2 R  D  Ri Ui NP NP 
000475 B2 D2 Li D  B2 D2 Li NP NP 
000476 B2 Li D  Li D2 NP NP NP NP 
000477 R2 F2 U  Ri F2 Ri D  NP NP 
000478 Ui L  U  R  D  Ri NP NP NP 
000479 Ri F  Ui Fi R  B2 L  NP NP 
000480 U  L2 F2 R  D  R2 F2 NP NP 
000481 R  D  Ri Ui L  U  NP NP NP 
000482 B2 D  L2 Bi L  Di NP NP NP 
000483 B  U  Bi Ui B2 L  NP NP NP 
000484 B2 D  B  Li NP NP NP NP NP 
000485 B2 L2 D  L2 Bi L  B2 NP NP 
000486 Ui L  U  B  D  B2 NP NP NP 
000487 Ui L  U  B2 D2 B  NP NP NP 
000488 Ui Li U  Di Li Bi Li NP NP 
000489 Ui L  U  B2 Di B  NP NP NP 
000490 B2 Di Bi D2 Li B2 NP NP NP 
000491 Ui L  U  B  D2 B2 NP NP NP 
000492 B2 D  Bi L2 B2 L  NP NP NP 
000493 B2 L  D  Li B  NP NP NP NP 
000494 Ui L  U2 Bi Ui NP NP NP NP 
000495 Ui Li U  Di L2 Bi NP NP NP 
000496 U  B  U2 L  U2 B2 Ui NP NP 
000497 Bi Di Bi Di L2 D2 Li NP NP 
000498 Ui L  U  B  Di B2 NP NP NP 
000499 U  Bi U2 L  U  NP NP NP NP 
000500 B  U  Bi Ui L  B2 NP NP NP 
000501 Ui L  U  Bi NP NP NP NP NP 
000502 B2 L  D  B2 Li B  NP NP NP 
000503 Ui L2 U  L2 Bi L  NP NP NP 
000504 B2 L  Di B2 D2 Li NP NP NP 
000505 Ui L2 U  Li B2 NP NP NP NP 
000506 U  B  U2 L  U2 B  Ui NP NP 
000507 B2 L  D  Li D  NP NP NP NP 
000508 Ui L  U  B2 D2 NP NP NP NP 
000509 B2 L  D  B2 Li D2 NP NP NP 
000510 Ui L  U  B2 Di NP NP NP NP 
000511 B2 L  D  B2 Li Di NP NP NP 
000512 B2 L  D  Li D2 NP NP NP NP 
000513 B2 L  D  Li Di NP NP NP NP 
000514 Ui L  U  B2 NP NP NP NP NP 
000515 B2 L  D  B2 Li NP NP NP NP 
000516 B2 L  D  Li NP NP NP NP NP 
000517 Ui L  U  B2 D  NP NP NP NP 
000518 B2 L  D  B2 Li D  NP NP NP 
000519 B2 L  D  B2 L2 Bi L  NP NP 
000520 Ui Li U  Di L2 B2 NP NP NP 
000521 Ui L  U  Li Di L  B2 NP NP 
000522 U  Bi U2 L  U  Bi NP NP NP 
000523 B2 L  D  Bi Li NP NP NP NP 
000524 Ui L  U  B  Di B  NP NP NP 
000525 B  U  Bi Ui B2 D  L  NP NP 
000526 B2 D  Li Di Bi NP NP NP NP 
000527 B  U  B  U2 D  Li U  NP NP 
000528 U  B2 U2 L  U  B  D  NP NP 
000529 Ri B2 R2 D  Li Ri Bi NP NP 
000530 Ri Ui L  B  U  R  D2 NP NP 
000531 B2 D  L  Di L2 Di Bi NP NP 
000532 Bi D  Bi L2 D  Li NP NP NP 
000533 U  B2 U2 L  U  B  D2 NP NP 
000534 U  B2 U2 L  U  B  Di NP NP 
000535 B  Ui L  U  Di B  L2 NP NP 
000536 Ri Ui L  B  U  R  NP NP NP 
000537 U  B2 U2 L  U  B  NP NP NP 
000538 U  B  U  F2 Di F2 U2 Li NP 
000539 Ri Ui L  B  U  R  D  NP NP 
000540 B  Ui L  U  B  L2 NP NP NP 
000541 U  Bi U2 D  L  U  NP NP NP 
000542 B2 D  Bi L2 B2 D  L  NP NP 
000543 Ui L  U  R  D  Ri Bi NP NP 
000544 Ri Ui B2 L  Bi U  R  NP NP 
000545 Ui L2 U  L2 Bi D  L  NP NP 
000546 Bi D  Li D2 Bi D  Li NP NP 
000547 F2 U  B  Ri Ui F2 NP NP NP 
000548 Ui L  U2 B  Ui NP NP NP NP 
000549 U  B  U2 L  U  B  D  NP NP 
000550 U  B  U2 L  U  B2 D2 NP NP 
000551 Ri Bi R  Bi D  Bi L2 NP NP 
000552 U  B  U2 L  U  B2 Di NP NP 
000553 Ui L  U  F2 U  B  Ui F2 NP 
000554 Bi D  Li Bi D  Li NP NP NP 
000555 U  B  U2 L  U  B  Di NP NP 
000556 U  B  U2 L  U  B2 NP NP NP 
000557 B  U  Bi U2 Li U  L  NP NP 
000558 U  B  U2 L  U  B  NP NP NP 
000559 U  B  U2 L  U  B2 D  NP NP 
000560 B2 Li Fi D  F  B2 Li NP NP 
000561 Ui Li Di L2 U2 B  Ui NP NP 
000562 U  B  U2 L  U  NP NP NP NP 
000563 U  F2 Di B  Ri D  F2 Ui NP 
000564 U  B  U2 L  U  Bi NP NP NP 
000565 U  B  U2 Li D  L2 U  NP NP 
000566 B  Li Bi Di Bi D  L2 NP NP 
000567 Ui L  U  Li Di B2 L  NP NP 
000568 B2 D2 L2 Di Li NP NP NP NP 
000569 Ui Li U  Di L  B2 L  NP NP 
000570 Ui L2 U  L2 B2 L  D2 NP NP 
000571 B2 L2 D  Li B  D  NP NP NP 
000572 B2 L2 D  Li B2 D2 NP NP NP 
000573 B2 L2 D  Li B  D2 NP NP NP 
000574 B2 L2 D  Li B2 Di NP NP NP 
000575 B2 L2 D  L2 D2 L  NP NP NP 
000576 Ui L2 U  L2 B2 L  NP NP NP 
000577 B2 L2 D  Li B  Di NP NP NP 
000578 B2 L2 D  Li B2 NP NP NP NP 
000579 U2 F  U  Fi U  B2 L  NP NP 
000580 B2 L2 D  Li B  NP NP NP NP 
000581 B2 L2 D  Li B2 D  NP NP NP 
000582 U2 F  Ri F2 Di F  U2 NP NP 
000583 B2 D  L  Ui L2 U  NP NP NP 
000584 B2 L2 D  Li NP NP NP NP NP 
000585 F2 R2 Di F2 L2 Ui L  NP NP 
000586 B2 L2 D  Li Bi NP NP NP NP 
000587 Ui L  U  Li B2 L  NP NP NP 
000588 Ui L  U2 R  B2 Ri Ui NP NP 
000589 Ui L2 U  Li NP NP NP NP NP 
000590 Ui L  U  L  Ui Li U  NP NP 
000591 Ui L  U  F  L  Fi NP NP NP 
000592 Ui L  U  B2 D2 B2 NP NP NP 
000593 U2 Li U  Li Ui L2 U2 NP NP 
000594 Ui Li U  D2 L2 NP NP NP NP 
000595 Ui L  U  Li D2 L  NP NP NP 
000596 Ui L  U  F  L2 Fi NP NP NP 
000597 B2 Di B2 L2 D2 Li NP NP NP 
000598 Ui Li U  Di L2 NP NP NP NP 
000599 Ui L  U  Li Di L  NP NP NP 
000600 U2 F  U  Fi U  L  NP NP NP 
000601 B2 Di B2 D2 Li NP NP NP NP 
000602 Ui L  U  F  Li Fi NP NP NP 
000603 B  U  Bi Ui Bi L  NP NP NP 
000604 Ui L  U  NP NP NP NP NP NP 
000605 B2 L  D  B2 Li B2 NP NP NP 
000606 Ui Bi L  B  U  NP NP NP NP 
000607 Ui Li D  L2 U  NP NP NP NP 
000608 Ui L  Fi L2 F  U  NP NP NP 
000609 B2 L2 Ui D  Li U  Bi NP NP 
000610 B2 D  Li Di B  NP NP NP NP 
000611 B2 L2 D  L  Di L2 B  NP NP 
000612 B2 Li D  Li D2 B  D2 NP NP 
000613 Ri B2 R2 D  Li Ri B  NP NP 
000614 B2 Li Bi Di B  D  Li NP NP 
000615 Bi R  Fi Di F  Ri Di NP NP 
000616 Bi D  Bi L2 D  Li B2 NP NP 
000617 B2 Li D  Li D2 B  Di NP NP 
000618 B2 Li D  Li D2 B  NP NP NP 
000619 Bi R  Fi Di F  Ri NP NP NP 
000620 B2 Li Bi Di B  D  Li D2 NP 
000621 Ui L  U  R  D  Ri B  NP NP 
000622 Bi R  Fi Di F  Ri D  NP NP 
000623 Bi Ri F  B2 U  Fi R  NP NP 
000624 B2 D  L2 Bi L  Di B  NP NP 
000625 Bi R  Ui Di F  U  Ri NP NP 
000626 Ri Ui L  B  U  R  B2 NP NP 
000627 U  B2 U2 L  U  Bi NP NP NP 
000628 U  B  Ri U  F2 R  U2 NP NP 
000629 U  Ri U  R  U2 Bi L  NP NP 
000630 Ui L  Ui F  R2 Fi U2 NP NP 
000631 B2 D  Bi Li NP NP NP NP NP 
000632 B2 L2 D  L2 Bi L  NP NP NP 
000633 Ui L  U  B  D  NP NP NP NP 
000634 Ui L  U  B2 D2 Bi NP NP NP 
000635 B  U  Bi Ui L  D2 NP NP NP 
000636 Ui L  U  B2 Di Bi NP NP NP 
000637 B2 Di Bi D2 Li NP NP NP NP 
000638 Ui L  U  B  D2 NP NP NP NP 
000639 Ui L  U  B  Di NP NP NP NP 
000640 U  Bi U2 L  U  B2 NP NP NP 
000641 B  U  Bi Ui L  NP NP NP NP 
000642 Ui L  U  B  NP NP NP NP NP 
000643 B2 L  D  B2 Li Bi NP NP NP 
000644 Ri B  R  B  D  Li NP NP NP 
000645 Ui L  U  B  U  B2 Ui NP NP 
000646 B2 L  D  Li Bi NP NP NP NP 
000647 Ui L  U  B2 D  Bi NP NP NP 
000648 Ui Li U  Di L2 B  NP NP NP 
000649 Ui L  U  Li Di L  B  NP NP 
000650 Ui L2 U  D2 B  D2 Li NP NP 
000651 B2 L2 Ui D  Li U  NP NP NP 
000652 F2 U  Ri Ui F2 NP NP NP NP 
000653 U  Ri U2 F2 Ui R  U2 NP NP 
000654 R  D  L  Ri B2 D  Li NP NP 
000655 R2 F2 Li U  Ri F2 Ri NP NP 
000656 Ui L  U2 Fi Ri F  Ui Di NP 
000657 Ui B2 D2 L  D2 B2 U  NP NP 
000658 Ui L  U2 Fi Ri F  Ui NP NP 
000659 F2 U  R2 B2 R  Ui F2 NP NP 
000660 B2 D  Li Di Li B2 L  NP NP 
000661 F2 Ri Ui R  F2 L  NP NP NP 
000662 U  B2 U2 L  U2 Bi Ui NP NP 
000663 B2 L2 B2 Ui Li U  L2 NP NP 
000664 U  B2 U2 L  U2 B2 Ui NP NP 
000665 F2 U  R2 Bi R  Ui F2 NP NP 
000666 Ri Ui B2 L  U  R  B2 NP NP 
000667 U  B2 U2 L  U  NP NP NP NP 
000668 B2 L2 Ui Li U  D  Li NP NP 
000669 Ri F  Ui Fi L  R  NP NP NP 
000670 U  R  Di R2 U  F2 R  U2 NP 
000671 R  D  Ri B2 D  Li NP NP NP 
000672 B2 Li Bi Li NP NP NP NP NP 
000673 U2 F  Ri Fi U2 L  D2 NP NP 
000674 Ri F  U2 Fi R  B  L  NP NP 
000675 B2 L  B2 D2 L2 B  Li NP NP 
000676 B  L2 Bi D2 Li B2 L2 NP NP 
000677 R  D  L  Ri D  B  Li NP NP 
000678 F  B2 Li Fi Bi Li NP NP NP 
000679 F2 Li B  L  F2 B  L2 NP NP 
000680 B2 Li Bi L  D2 L2 NP NP NP 
000681 B  L  B  L2 B  NP NP NP NP 
000682 B  L  B  L  D2 L  NP NP NP 
000683 B2 Li Bi L2 B2 L  NP NP NP 
000684 Ri F  U2 Fi L  R  B2 NP NP 
000685 B2 L  B2 L2 B  Li B2 NP NP 
000686 B  L  B  L2 NP NP NP NP NP 
000687 B  L  B  L2 Bi NP NP NP NP 
000688 Ri F  U2 Fi L  R  B  NP NP 
000689 B  Li D  B  L2 Di NP NP NP 
000690 R  Di Ri B  Di Li NP NP NP 
000691 B2 L  B2 L2 B  Li NP NP NP 
000692 B  L  B  L2 B2 NP NP NP NP 
000693 Bi D  B2 L2 B  L  NP NP NP 
000694 Bi U2 Di R  F2 D2 Ri U2 NP 
000695 Bi D2 L2 D  B2 D2 Li NP NP 
000696 Bi D2 B2 Di Li NP NP NP NP 
000697 Bi U  R  D  Ri Ui Li D  NP 
000698 Bi D  B2 Li D2 Bi D2 NP NP 
000699 B  L2 Ui D  L  U  NP NP NP 
000700 Bi D  B2 L2 Bi Di L  NP NP 
000701 B  Ui L  U  B2 D  NP NP NP 
000702 B  L2 Ui L  U  B  NP NP NP 
000703 B  L2 Ui D2 L  U  NP NP NP 
000704 Bi D  B2 Li Bi NP NP NP NP 
000705 Bi D2 L  Di B2 Li NP NP NP 
000706 Bi D  B2 Li B2 NP NP NP NP 
000707 B  L2 Ui L  U  NP NP NP NP 
000708 B  L2 Ui L  U  Bi NP NP NP 
000709 Bi D2 Li B2 Di Li NP NP NP 
000710 Bi D  B2 Li B  NP NP NP NP 
000711 B  L2 Ui Di L  U  NP NP NP 
000712 Bi D  B2 Li NP NP NP NP NP 
000713 B  L2 Ui L  U  B2 NP NP NP 
000714 B2 L  Bi L2 B  D  L  NP NP 
000715 Ri Bi R  B2 D  Li D  NP NP 
000716 Ri Bi R2 D  L2 Ri D2 NP NP 
000717 Ri B  Ui B2 L  U  R  D2 NP 
000718 R  Di Ri B  L  B  L2 NP NP 
000719 R  D  L  Ri D2 B  Li NP NP 
000720 R2 U  Ri F  Di R  Ui R2 NP 
000721 B2 Li Bi D  Li NP NP NP NP 
000722 R  Di R2 B  Li B  R  NP NP 
000723 B  Li B  Di Li D  NP NP NP 
000724 R  Di Ri B  Li Bi NP NP NP 
000725 R  Di R2 B  Li R  B  NP NP 
000726 R  Di Ri B  Li B2 NP NP NP 
000727 R  Di R2 B  Li R  NP NP NP 
000728 B  L  B  Li D  Li NP NP NP 
000729 U  R  D2 Bi Ri Ui D  NP NP 
000730 R  Di Ri B  Li B  NP NP NP 
000731 B  Li B  Li D  L  NP NP NP 
000732 R  Di Ri B  Li NP NP NP NP 
000733 B2 L  Bi L2 D  L  NP NP NP 
000734 B  L  B  Li D  Li B2 NP NP 
000735 Bi R  Di Li Di Ri NP NP NP 
000736 Bi U2 R  F  D2 Ri U2 NP NP 
000737 Bi D2 B2 Li NP NP NP NP NP 
000738 Bi D2 B2 L  Bi L2 NP NP NP 
000739 Ri Bi R  Bi D2 NP NP NP NP 
000740 Bi D2 B  L2 B  Li NP NP NP 
000741 Bi R  D2 R2 B  R  NP NP NP 
000742 B  L2 B2 Di B  Di L  NP NP 
000743 B  L2 Bi D2 Bi D2 L  NP NP 
000744 Bi R  D2 Ri B  NP NP NP NP 
000745 B  L2 B2 D2 L  NP NP NP NP 
000746 Bi D  B2 D  Li Bi NP NP NP 
000747 B  L2 B2 D2 L  Bi NP NP NP 
000748 Bi D  B2 D  Li B2 NP NP NP 
000749 Bi R  D2 Ri NP NP NP NP NP 
000750 Bi R  D2 Ri Bi NP NP NP NP 
000751 Bi D2 Li B2 Li NP NP NP NP 
000752 B  L2 B2 D2 Bi L  NP NP NP 
000753 Bi R  D  Ri D  NP NP NP NP 
000754 Bi D  B2 D  Li NP NP NP NP 
000755 Bi R  D2 Ri B2 NP NP NP NP 
000756 U2 F2 R  F2 U2 B  Li NP NP 
000757 B  Li B  D2 Li D2 NP NP NP 
000758 U2 F  R  Fi U2 F  L2 Fi NP 
000759 Ri B  R2 Di Ri D  Li NP NP 
000760 R  Di Ri D  L  B  Li NP NP 
000761 R  D  L  Ri Di B  Li NP NP 
000762 B  L  Ri B2 L2 B  R  NP NP 
000763 F  U2 F  R  U2 F2 L2 NP NP 
000764 Bi R  F  L  D2 Fi Ri NP NP 
000765 B  Li Ri Bi R  B2 NP NP NP 
000766 R  Di Ri B  D  Li Bi NP NP 
000767 B2 Li Bi D2 Li NP NP NP NP 
000768 B2 Li B  D2 B2 Li NP NP NP 
000769 B  Li B  Li D2 L  NP NP NP 
000770 U2 F  R  Fi U2 L2 NP NP NP 
000771 B  Li Ri Bi R  NP NP NP NP 
000772 U2 Li Fi L  R  F  U2 NP NP 
000773 B2 Li Bi D2 Li B2 NP NP NP 
000774 R  Di Ri B  D  Li NP NP NP 
000775 R  D  Ri Di B  Li NP NP NP 
000776 B  Li Ri Bi R  Bi NP NP NP 
000777 Fi Bi Di F  B2 Li NP NP NP 
000778 B  L2 B2 D2 Li D  L2 NP NP 
000779 B  L2 D2 B2 Di L  NP NP NP 
000780 Bi D2 L2 B2 D  Li NP NP NP 
000781 Bi Di F  B2 Li Fi NP NP NP 
000782 R  D  L  R2 B  Li R  NP NP 
000783 Bi Di B2 Li NP NP NP NP NP 
000784 B  Li D  L2 B2 Di NP NP NP 
000785 B  L2 Di L  D  B2 Di NP NP 
000786 B  L  B2 Di L2 B  NP NP NP 
000787 Bi D2 L2 D  B2 Li NP NP NP 
000788 B  L2 B2 Di B  L  NP NP NP 
000789 B  Ui L2 U  B  D2 L  NP NP 
000790 Bi D  B2 D2 Li B2 NP NP NP 
000791 B  L  B2 Di L2 NP NP NP NP 
000792 B  L2 B2 Di L  NP NP NP NP 
000793 Bi D2 Li B2 D  Li NP NP NP 
000794 B  Li D  B2 L2 Di NP NP NP 
000795 B  Li D  L  B2 Di NP NP NP 
000796 Bi D  B2 D2 Li NP NP NP NP 
000797 B  L  B2 Di L2 B2 NP NP NP 
000798 B  Li D  B  Li Di NP NP NP 
000799 B  Ui Fi Li F  U  B  NP NP 
000800 B2 L2 Bi L  Di L2 NP NP NP 
000801 Ri U  Ri F  Ui R2 Di Bi NP 
000802 B2 Li Bi Di Li NP NP NP NP 
000803 Bi D  B2 L  B  L2 NP NP NP 
000804 B  L2 B2 D  L  B  NP NP NP 
000805 B2 L  Bi L2 Bi Di L  NP NP 
000806 B  Li B  Li Di L  NP NP NP 
000807 U  B  Ui B  Li B  NP NP NP 
000808 B  Ui Li U2 B2 Ui Bi NP NP 
000809 R  Di Ri Bi R  D2 Ri NP NP 
000810 U  Fi Ri F  Ui Di B2 NP NP 
000811 R  Di R2 Bi R  D2 NP NP NP 
000812 U  R  Bi D  Ri Ui NP NP NP 
000813 Bi R  Di Ri Di Bi NP NP NP 
000814 B  Ui Li U  B  NP NP NP NP 
000815 B  Ui L2 U  B2 L  B  NP NP 
000816 R  Di Ri B  D2 Li NP NP NP 
000817 B2 L  Bi L2 Di L  NP NP NP 
000818 Fi U  Ri Ui F  Di B2 NP NP 
000819 B  L2 Bi Di Bi L  NP NP NP 
000820 B  U  B2 Ui Li B2 Li NP NP 
000821 B  L2 D2 B2 L  NP NP NP NP 
000822 B  Li B2 D2 Bi D2 NP NP NP 
000823 B  L2 D2 Li B2 L2 NP NP NP 
000824 B2 L  Bi L  B  L2 B  NP NP 
000825 B  L2 D  L  B2 NP NP NP NP 
000826 B  Li B2 D2 B2 D2 NP NP NP 
000827 Ri Bi R  B2 D2 B  NP NP NP 
000828 B  L2 Di L  B2 NP NP NP NP 
000829 Ri B  Li R  Bi NP NP NP NP 
000830 B  L2 B  Di B  L  NP NP NP 
000831 B  L2 Bi D2 L  Bi NP NP NP 
000832 B2 L2 Bi L2 D  B  L  NP NP 
000833 B  L  B2 L2 NP NP NP NP NP 
000834 B  L  Bi L2 Bi NP NP NP NP 
000835 B  L2 D2 L  B2 NP NP NP NP 
000836 B2 L  Bi Li B  NP NP NP NP 
000837 B  L2 B  D2 B  L  NP NP NP 
000838 B  L2 Di B2 L  NP NP NP NP 
000839 B  Li B2 NP NP NP NP NP NP 
000840 B2 L  B2 D2 B  Li NP NP NP 
000841 B2 L  Bi L  B2 L2 NP NP NP 
000842 B  L  F  L2 Fi B  NP NP NP 
000843 R  D2 L2 Ri B  Li NP NP NP 
000844 U2 R  Fi D2 Ri U2 L  NP NP 
000845 B2 L  Bi L  B  L2 NP NP NP 
000846 B  L2 D  L  B  NP NP NP NP 
000847 B2 L  B2 Di B  Li NP NP NP 
000848 Ri Bi R  B2 D2 NP NP NP NP 
000849 B  Li B  NP NP NP NP NP NP 
000850 B  Li D  L2 B  Di NP NP NP 
000851 B2 L  Bi L  Bi L2 NP NP NP 
000852 Ri B  Li R  B2 NP NP NP NP 
000853 B  Li U  B2 Ui B  NP NP NP 
000854 B  L2 Di L  B  NP NP NP NP 
000855 B  L  B2 L2 Bi NP NP NP NP 
000856 B2 U  L  Bi Li Ui NP NP NP 
000857 B  L  B  L2 D  L2 Di NP NP 
000858 B  L2 D2 L  B  NP NP NP NP 
000859 B2 L  Bi Li NP NP NP NP NP 
000860 B  L  Bi L2 B2 NP NP NP NP 
000861 B  Ui L2 U  Bi L  NP NP NP 
000862 B  Ui Fi Li F  U  NP NP NP 
000863 B  L2 D2 B2 D  L  NP NP NP 
000864 B  Ui F2 D2 F2 Li U  NP NP 
000865 B2 Li Bi Di Li Bi NP NP NP 
000866 R  D  L  R2 Bi R  D2 NP NP 
000867 B  L2 B2 D  L  NP NP NP NP 
000868 Bi R  Di L2 Ri B2 Di NP NP 
000869 B  Ui L  D  L2 U  NP NP NP 
000870 B  Ui L  D2 L2 U  NP NP NP 
000871 B  L2 D  B2 D  L  NP NP NP 
000872 B  Ui L2 U  B  L  NP NP NP 
000873 B  Ui Li U2 B2 Ui B2 NP NP 
000874 B  L2 Bi D2 Bi D  L  NP NP 
000875 U  B  Ui B  Li NP NP NP NP 
000876 B  Ui L2 U  L  NP NP NP NP 
000877 B  Ui F  Li Fi U  NP NP NP 
000878 B  Ui Li U  Li B2 L  NP NP 
000879 B  Ui Li U  NP NP NP NP NP 
000880 B  Ui L2 U  B2 L  NP NP NP 
000881 B  Li B2 Li D  L  NP NP NP 
000882 Bi D  B  Li D2 B  Li NP NP 
000883 Bi D  Li B2 Li NP NP NP NP 
000884 B  L  B2 D  F  L2 Fi NP NP 
000885 R2 Fi U  Ri F  Ri Di NP NP 
000886 B  L2 D2 Li B2 D  L2 NP NP 
000887 Bi D  Li B2 Di Li NP NP NP 
000888 Ui Li U2 D  B  Ui D  NP NP 
000889 Bi D  B  Li Di B  Li NP NP 
000890 Bi D  Li B2 D  Li NP NP NP 
000891 B  L  B2 D  L2 B  NP NP NP 
000892 Ui Li U2 D2 B  Ui D  NP NP 
000893 Bi D2 B2 L  Di L2 NP NP NP 
000894 Bi R  D  L2 Ri D  B2 NP NP 
000895 Bi D  Li D2 B2 Li NP NP NP 
000896 B  L  B2 D  L2 NP NP NP NP 
000897 B  L  B2 D  L2 Bi NP NP NP 
000898 B  L  Fi B2 D  F  L2 NP NP 
000899 B  L  B2 L2 U  B2 Ui NP NP 
000900 Bi R  D  L2 Ri D  NP NP NP 
000901 B  Li Ui L  U  Li NP NP NP 
000902 B  L  B2 D  L2 B2 NP NP NP 
000903 B  L  B  L2 D  Li Di NP NP 
000904 B2 L  B  L  B2 D2 Li NP NP 
000905 B  L2 Bi D2 B2 L  NP NP NP 
000906 U2 F  Ri Fi U2 B2 D2 NP NP 
000907 R2 Ui F2 U  R2 B  Li NP NP 
000908 B2 L  Ri B  R  B  D2 NP NP 
000909 B  L2 B  D  L  NP NP NP NP 
000910 B  L2 Di B  Di L  NP NP NP 
000911 B2 L2 Bi L2 D2 L  NP NP NP 
000912 B  L2 B  L  B  NP NP NP NP 
000913 B  L2 B  D2 L  NP NP NP NP 
000914 B  L2 Di B  L  NP NP NP NP 
000915 B  L2 B  D2 L  Bi NP NP NP 
000916 B2 L2 Bi Li B  NP NP NP NP 
000917 B  L2 B  L  NP NP NP NP NP 
000918 B  L2 B  L  Bi NP NP NP NP 
000919 B  L2 B  D2 L  B2 NP NP NP 
000920 B2 L2 Bi Li NP NP NP NP NP 
000921 B  L2 D2 B  L  NP NP NP NP 
000922 B2 L2 Bi Li Bi NP NP NP NP 
000923 B  L2 B  L  B2 NP NP NP NP 
000924 B  L2 Di Bi L  NP NP NP NP 
000925 B2 L  B  Li B2 Li NP NP NP 
000926 F  U2 F  U2 F2 L  NP NP NP 
000927 B  Li B2 L2 B  L2 NP NP NP 
000928 B  Li Bi Di Li D  NP NP NP 
000929 U2 F  U  F2 L  F  U  NP NP 
000930 B  L2 Bi D  L  NP NP NP NP 
000931 Bi D  B  Di B  Li NP NP NP 
000932 Ri Bi R  B2 D2 B2 NP NP NP 
000933 B  L  B2 L2 B  NP NP NP NP 
000934 B  L2 Bi D2 L  NP NP NP NP 
000935 Ui L2 U  Fi D  F  L  NP NP 
000936 B  L2 D2 L  Bi NP NP NP NP 
000937 B2 L  Bi Li B2 NP NP NP NP 
000938 B  L  Bi L2 NP NP NP NP NP 
000939 B  Li Bi NP NP NP NP NP NP 
000940 U2 Li Fi L  F  U2 NP NP NP 
000941 B  L2 D2 Bi L  NP NP NP NP 
000942 Ri B  Li R  NP NP NP NP NP 
000943 B  L2 B  Di B2 L  NP NP NP 
000944 B  L2 Di L  Bi NP NP NP NP 
000945 Bi R  Di Li Ri Di NP NP NP 
000946 R  D  Ri B  D2 Li NP NP NP 
000947 R  D  Li Ri B  Li NP NP NP 
000948 Ri U  Ri F  Ui R2 Di NP NP 
000949 B2 Li Bi Di Li B  NP NP NP 
000950 R  D  L  Ri B  Li NP NP NP 
000951 B  L2 B2 D  L  B2 NP NP NP 
000952 B2 L  B2 L2 Di B  Li NP NP 
000953 R  D  Ri B  Di Li NP NP NP 
000954 R  D  Ri B  Li NP NP NP NP 
000955 U  Fi Ri F  Ui Di Bi NP NP 
000956 R  Di R2 Bi R  D2 B  NP NP 
000957 B  Ui Li U  B2 NP NP NP NP 
000958 B  Ui L2 U  B2 L  B2 NP NP 
000959 Bi R  Di Ri Di NP NP NP NP 
000960 Fi U  Ri Ui F  Di Bi NP NP 
000961 R  D  L2 Ri B  Li NP NP NP 
000962 Bi R  Di L2 Ri Di NP NP NP 
000963 B  Ui Li U2 B2 Ui NP NP NP 
000964 B  U2 Ri Ui R  Ui Li NP NP 
000965 U  B  Ui B  Li B2 NP NP NP 
000966 B  Li U  Bi Ui NP NP NP NP 
000967 B  L2 D  Li D2 L2 NP NP NP 
000968 B  L  F  L2 Fi NP NP NP NP 
000969 B  L2 D  L2 D2 Li NP NP NP 
000970 Ri B  L  R  B  L2 NP NP NP 
000971 Ui L  U  L2 B  L  D  NP NP 
000972 B  L2 D  L  NP NP NP NP NP 
000973 F2 Li B  L  F2 L2 NP NP NP 
000974 F  B  L  Fi D  L2 NP NP NP 
000975 B  L  Bi L2 B  NP NP NP NP 
000976 B  L2 D2 L  NP NP NP NP NP 
000977 B2 L  Bi Li Bi NP NP NP NP 
000978 U2 Li Fi L  F  U2 B  NP NP 
000979 B  L2 D2 Bi L  B  NP NP NP 
000980 B  Li NP NP NP NP NP NP NP 
000981 B  L2 Di L  NP NP NP NP NP 
000982 Ri B  Li R  B  NP NP NP NP 
000983 B  Li U  B2 Ui NP NP NP NP 
000984 Ui Li U  Di B  D  NP NP NP 
000985 B  Li Di R  D  Ri NP NP NP 
000986 B  L  B2 L2 B2 NP NP NP NP 
000987 B2 L2 Bi Ui Li U  NP NP NP 
000988 B  Ui Fi Li F  U  Bi NP NP 
000989 R  D  Li Ri B  Li B  NP NP 
000990 Ri U  Ri F  Ui R2 B  Di NP 
000991 B2 Li Bi Di Li B2 NP NP NP 
000992 R  D  L  Ri B  Li B  NP NP 
000993 B  L2 B2 D  L  Bi NP NP NP 
000994 B  Ri Ui Li U  Bi R  NP NP 
000995 B  Ui L  D  L2 U  Bi NP NP 
000996 Bi R  Di Ri Di B  NP NP NP 
000997 B  Ui Li U  Bi NP NP NP NP 
000998 Bi D  B2 L  Bi L2 NP NP NP 
000999 R  D  L2 Ri B  Li B  NP NP 
001000 R2 U  R  Bi Ui R  D  NP NP 
001001 Fi U  Ri Ui F  Di NP NP NP 
001002 U  B  Ui B  Li Bi NP NP NP 
001003 B  Ui Li U2 B2 Ui B  NP NP 
001004 Bi D  Bi L  Bi Li NP NP NP 
001005 U  Fi Ri F  Ui Di NP NP NP 
001006 R  Di R2 Bi R  D2 B2 NP NP 
001007 R  D  Ri B  Li B  NP NP NP 
001008 B2 L2 D  NP NP NP NP NP NP 
001009 B2 Di L  B2 L  D2 NP NP NP 
001010 B2 D  Bi L2 B  L2 NP NP NP 
001011 B2 D2 L2 Di NP NP NP NP NP 
001012 Ui Li U  Di L  B2 L2 NP NP 
001013 B2 L  Di B2 L  D2 NP NP NP 
001014 B2 Di Li B2 Li D2 NP NP NP 
001015 B2 Di L2 Bi D2 NP NP NP NP 
001016 B2 L2 D  L2 D2 L2 NP NP NP 
001017 Ui L2 U  L2 B2 L2 NP NP NP 
001018 F  B2 Li Fi Li D  NP NP NP 
001019 B2 L2 D  Li B2 L  NP NP NP 
001020 F2 U  R2 B2 Ui F2 D2 NP NP 
001021 B  U  Bi Ui B  L2 B2 NP NP 
001022 B2 Ui L2 U  D  B  NP NP NP 
001023 B2 Ui L2 U  D  NP NP NP NP 
001024 B2 Di L  Bi L  D2 NP NP NP 
001025 Fi Bi D  Bi D  F  NP NP NP 
001026 U  L2 F2 D  R2 F2 D2 NP NP 
001027 B  U  Bi Ui B  L2 NP NP NP 
001028 B2 Di L2 B  D2 NP NP NP NP 
001029 Bi D  B  L2 B2 L  D  NP NP 
001030 B  Li B2 Di Bi D2 Li NP NP 
001031 U  B  U2 L  U  L  NP NP NP 
001032 Bi D  Bi Li D  NP NP NP NP 
001033 Ui L  U2 B  Ui L  NP NP NP 
001034 Bi D  Li D2 Bi D  NP NP NP 
001035 F  B2 Li F2 D  F  NP NP NP 
001036 U  B  Ui L2 B2 Li D  NP NP 
001037 Bi D  Li Bi D  NP NP NP NP 
001038 B2 Li Di Bi L2 D2 NP NP NP 
001039 B2 Li Fi D  F  NP NP NP NP 
001040 U  B  Ui B2 L  D  B2 NP NP 
001041 B2 Li Fi D  F  Bi NP NP NP 
001042 U  B  Ui B2 L  D  B  NP NP 
001043 B2 Li Di Bi L2 D2 Bi NP NP 
001044 B2 Li Di Bi L2 D2 B2 NP NP 
001045 B2 Li Fi D  F  B2 NP NP NP 
001046 U  B  Ui B2 L  D  NP NP NP 
001047 B2 Li Fi D  F  B  NP NP NP 
001048 U  B  Ui B2 L  D  Bi NP NP 
001049 B2 Di B  D  Li D  NP NP NP 
001050 B2 L2 Ui L  U  D  NP NP NP 
001051 Fi L  B2 Li F  D  NP NP NP 
001052 B2 Li Di L2 D2 NP NP NP NP 
001053 B2 D  Li D  L  NP NP NP NP 
001054 Ui L  U  B2 Li B2 D  L2 NP 
001055 R  Di R2 Ui L2 U  R  NP NP 
001056 F  B2 Li Fi R  D  Ri NP NP 
001057 B2 Li D  NP NP NP NP NP NP 
001058 B2 D2 B2 R  Di Ri NP NP NP 
001059 B2 Li D2 B2 Li Di NP NP NP 
001060 F  B2 Li Fi D  NP NP NP NP 
001061 B2 Li D  Ri B  R  NP NP NP 
001062 F  B2 Li Fi D  Bi NP NP NP 
001063 B2 Li D2 B  Di B2 NP NP NP 
001064 B2 Li D2 B2 L2 Di NP NP NP 
001065 B2 Li D2 Bi L  Di NP NP NP 
001066 B2 Li Di L  D2 NP NP NP NP 
001067 B2 Li D2 B2 Di NP NP NP NP 
001068 F  B2 Li Fi D  B  NP NP NP 
001069 B2 Li D2 B  Di NP NP NP NP 
001070 Ui Li U  R  Di Li Ri NP NP 
001071 U  B  Ui B2 L2 D  NP NP NP 
001072 B2 Di B2 L  Bi D2 NP NP NP 
001073 Fi U  R2 Ui D2 F  NP NP NP 
001074 U  B  Ui L2 B2 D  NP NP NP 
001075 R2 Ui L2 F  U  R2 NP NP NP 
001076 B  U  Bi Ui B2 D2 L2 NP NP 
001077 R2 Ui F  L2 U  R2 NP NP NP 
001078 Ui L2 U  D2 Bi D2 NP NP NP 
001079 B2 Di B  Di Bi Di NP NP NP 
001080 B2 Di B  D2 Bi NP NP NP NP 
001081 B2 Di Bi Li B2 D2 NP NP NP 
001082 Bi D  Bi D  B2 NP NP NP NP 
001083 Ui L  U  Bi D2 L  B2 NP NP 
001084 Bi D  Bi D  B  NP NP NP NP 
001085 B2 Di B  D2 B2 NP NP NP NP 
001086 B2 Di B  D2 B  NP NP NP NP 
001087 Bi U  D2 B  Ui L2 NP NP NP 
001088 Bi D  Bi D  NP NP NP NP NP 
001089 Ui L  U  Bi D2 L  NP NP NP 
001090 Bi D  Bi D  Bi NP NP NP NP 
001091 B2 Di B  D2 NP NP NP NP NP 
001092 B2 Di Li D  L2 D  NP NP NP 
001093 B2 L  Di B  L2 D2 NP NP NP 
001094 R  Di Ri B2 L  D  NP NP NP 
001095 B2 Di Li D2 NP NP NP NP NP 
001096 R  Di Ri B2 Di B2 D2 NP NP 
001097 R  Di R2 B2 R  D  NP NP NP 
001098 R  Di Ri B2 L2 D  NP NP NP 
001099 B2 Di Li Bi D2 NP NP NP NP 
001100 Ui L2 U2 Fi R  F  Ui NP NP 
001101 B2 Di L  B2 L2 D2 NP NP NP 
001102 R  Di Ri B2 D  B2 NP NP NP 
001103 B2 L  Di L2 D2 NP NP NP NP 
001104 R  Di Ri B2 D  B  NP NP NP 
001105 B2 L  Di L2 D2 Bi NP NP NP 
001106 B2 Di Li B  D2 B2 NP NP NP 
001107 B2 Di Li B2 D2 NP NP NP NP 
001108 R  Di Ri B2 D  NP NP NP NP 
001109 B2 L  Di L2 D2 B2 NP NP NP 
001110 R  Di Ri B2 D  Bi NP NP NP 
001111 B2 L  Di L2 D2 B  NP NP NP 
001112 B2 Di Li B  D2 NP NP NP NP 
001113 B2 D2 B  D2 L2 D  NP NP NP 
001114 Bi D2 L  Bi L  D  NP NP NP 
001115 Bi D2 Li Bi D  NP NP NP NP 
001116 B2 D2 B  Di NP NP NP NP NP 
001117 Bi D2 L  Bi Li D  NP NP NP 
001118 B2 L2 Fi D  F  NP NP NP NP 
001119 Bi D2 Bi D  NP NP NP NP NP 
001120 B2 D2 B  D  Bi D2 NP NP NP 
001121 B2 D2 Ri B  R  Di NP NP NP 
001122 B  Li B2 Di Bi Li NP NP NP 
001123 B2 D  B  L  Di Li NP NP NP 
001124 B2 R  D2 Ri B  Di Bi NP NP 
001125 Bi D2 L2 Bi D  B2 NP NP NP 
001126 Bi D2 B  L2 B2 D  NP NP NP 
001127 Bi D2 L  Bi D  B  NP NP NP 
001128 Bi D2 L  Bi D  NP NP NP NP 
001129 Bi D2 Bi L2 D  NP NP NP NP 
001130 B2 D2 B  D2 L  D  NP NP NP 
001131 Bi D2 L2 Bi D  NP NP NP NP 
001132 B2 R  D2 Ri B  Di NP NP NP 
001133 B2 D2 B  D  B  D2 NP NP NP 
001134 B2 D2 Li D2 L2 D  NP NP NP 
001135 B2 L  D2 B  L2 Di NP NP NP 
001136 B2 L  U  B2 Ui L2 NP NP NP 
001137 B2 D2 Li Di NP NP NP NP NP 
001138 B2 L2 D  L  Di Li NP NP NP 
001139 U2 F2 R  Di F2 U2 B2 NP NP 
001140 Ui L  U  B2 Li Di L2 NP NP 
001141 B2 L  D2 B2 L2 Di NP NP NP 
001142 B2 D2 Li R  Di Ri NP NP NP 
001143 U  Ri U  R  U2 B2 L2 NP NP 
001144 U  B2 U2 L  U  B2 L  NP NP 
001145 B  U  R  Di Bi Ri Ui L2 NP 
001146 Ri F  Ui Fi L2 R  B2 NP NP 
001147 R  D  L  Ri Ui L2 U  NP NP 
001148 Ri B2 R2 D  Ri NP NP NP NP 
001149 B2 D2 Li D  B2 D2 NP NP NP 
001150 B2 Li D  Li D2 L  NP NP NP 
001151 R  D  Ri Ui L2 U  NP NP NP 
001152 U  B2 Ui Ri B2 R  D  NP NP 
001153 R  Di Ri D  B2 D  NP NP NP 
001154 B2 D2 Li D  B  D2 NP NP NP 
001155 B2 D  B  Di L2 D  NP NP NP 
001156 B2 Di B2 L  D2 Bi NP NP NP 
001157 Ui L  U  L  Bi NP NP NP NP 
001158 B2 D  B  NP NP NP NP NP NP 
001159 U  Fi R2 F  Ui Bi D2 NP NP 
001160 B  U  Bi Ui B2 L2 NP NP NP 
001161 Ui Li U  D2 Li Bi NP NP NP 
001162 B2 Di Bi D2 B2 NP NP NP NP 
001163 B2 L  Di Li D2 B  NP NP NP 
001164 B2 D  Bi L2 B2 L2 NP NP NP 
001165 Bi Di Bi D  NP NP NP NP NP 
001166 Ui L  U  B  L  B2 NP NP NP 
001167 Ui Li U  Di Li Bi NP NP NP 
001168 Ui L  U  Li Di L2 Bi NP NP 
001169 B2 Di B2 L2 D2 Bi NP NP NP 
001170 B2 D  L2 Bi L2 B  NP NP NP 
001171 B2 Di Bi Li D2 B2 NP NP NP 
001172 B  U  Bi Ui L2 B2 NP NP NP 
001173 Ui L  U  Bi L  NP NP NP NP 
001174 Ui Li D  Li U  Bi NP NP NP 
001175 B2 Di B2 D2 Bi NP NP NP NP 
001176 B2 Ui F2 D  F2 U  NP NP NP 
001177 B  L2 Di L2 B  D  NP NP NP 
001178 Fi B2 D  F  NP NP NP NP NP 
001179 B2 D  NP NP NP NP NP NP NP 
001180 Fi B2 D2 R  Di Ri F  NP NP 
001181 B2 L  Di B2 Li D2 NP NP NP 
001182 B2 D  L  D2 Li NP NP NP NP 
001183 F  Di B2 D  Fi NP NP NP NP 
001184 B2 L  Di Li D2 NP NP NP NP 
001185 B2 L  D2 Li Di NP NP NP NP 
001186 B2 D  L  Di Li NP NP NP NP 
001187 Ui Li D  Li U  B2 NP NP NP 
001188 Ri B2 R  D  B2 NP NP NP NP 
001189 Ui L  U  B  L  B  NP NP NP 
001190 Ui L2 Di L  U  D  B2 NP NP 
001191 Ui L2 U  D2 B2 D2 NP NP NP 
001192 Ui Li U  Di Li B2 NP NP NP 
001193 B2 Ui Fi D  F  U  NP NP NP 
001194 B  L2 D2 L2 B  D  NP NP NP 
001195 B  U  Bi Ui L2 B  NP NP NP 
001196 B2 D  L2 Bi L2 NP NP NP NP 
001197 Bi D  Bi L  D  NP NP NP NP 
001198 B2 L  B  L2 Di Bi D  NP NP 
001199 B2 Li Di L2 Bi D2 NP NP NP 
001200 B2 D2 Li Di Bi NP NP NP NP 
001201 R2 U  R  Ui R  D2 B  NP NP 
001202 U2 F2 R  Di F2 U2 B  NP NP 
001203 U  B  U2 Li U  D2 Li NP NP 
001204 U  B  Ui B2 Li D  NP NP NP 
001205 B2 Li Di L  B  D2 B2 NP NP 
001206 Ri Ui B2 L2 U  Bi R  NP NP 
001207 B2 Li Di Li Bi D2 NP NP NP 
001208 Ri Ui L2 B  U  R  NP NP NP 
001209 U  B2 U2 L  U  B2 L  Bi NP 
001210 Ui L  U  L  Bi D  L  Di NP 
001211 Ri B  Ui B  U  R  D  NP NP 
001212 B2 Li Di Bi D2 NP NP NP NP 
001213 Ui L  U2 Bi Ui D  L  NP NP 
001214 U  B  Ui L2 B2 L  D  NP NP 
001215 Ui L  U  Bi D  L  NP NP NP 
001216 Ri Ui B2 L2 U  R  Bi NP NP 
001217 B2 Di B  D  L  D  NP NP NP 
001218 U  R2 Bi U2 D2 Fi U  NP NP 
001219 Bi D  L2 Bi D  NP NP NP NP 
001220 U  B  Ui Fi B2 D  F  NP NP 
001221 U  B  U2 L2 U  NP NP NP NP 
001222 Bi D2 L  Di L2 Bi D  NP NP 
001223 R2 Fi U  F  R2 D2 NP NP NP 
001224 U  B  U2 Li D2 Li U  NP NP 
001225 Bi D  Bi L2 D  NP NP NP NP 
001226 B  Ui L  U  B  D  Li NP NP 
001227 B  Ui L  U  B  D2 Li NP NP 
001228 U  B  U2 Li Di Li U  NP NP 
001229 Bi U  D  B  Ui L2 NP NP NP 
001230 U2 L2 B  U  Bi L2 U2 B2 NP 
001231 Ui L  U  L  U  B  Ui NP NP 
001232 B2 U  Di B2 D2 B  Ui NP NP 
001233 U  B  U  F2 Di F2 U2 NP NP 
001234 B  Ui Li U  L  B  D  NP NP 
001235 Bi D  B  L2 B2 D  NP NP NP 
001236 U  Fi R2 F  D2 B2 Ui NP NP 
001237 Bi U  D  B  Ui L2 B  NP NP 
001238 B2 Di B  D  L2 D  NP NP NP 
001239 Ui L  U  B2 Li Bi L2 NP NP 
001240 Ui L2 U  D2 B2 L  D2 NP NP 
001241 B2 Di L  Fi D2 F  NP NP NP 
001242 B2 D2 L  Di NP NP NP NP NP 
001243 B2 Ui L2 U  Li D  NP NP NP 
001244 B2 L  Di B2 D2 NP NP NP NP 
001245 B2 L  Di B  D2 NP NP NP NP 
001246 B2 L  D2 B2 Di NP NP NP NP 
001247 B2 L  D  Li D2 L  NP NP NP 
001248 B2 L  D  Li Di L  NP NP NP 
001249 Ui L  U  B2 L  NP NP NP NP 
001250 B2 L  D  B2 NP NP NP NP NP 
001251 Ui L  U  B2 L  Bi NP NP NP 
001252 B2 L  D  B  NP NP NP NP NP 
001253 Ui L  U  B2 D2 L  NP NP NP 
001254 B2 Di L  B2 D2 NP NP NP NP 
001255 Ui L  U  B2 L  B2 NP NP NP 
001256 B2 L  D  NP NP NP NP NP NP 
001257 Ui L  U  B2 L  B  NP NP NP 
001258 B2 L  D  Bi NP NP NP NP NP 
001259 B2 Di L  B  D2 NP NP NP NP 
001260 U2 F2 U  Di F2 U  NP NP NP 
001261 B2 Di B2 L  D2 NP NP NP NP 
001262 Ui L  U  L  NP NP NP NP NP 
001263 Ui L2 U  NP NP NP NP NP NP 
001264 B2 Di B2 D  Li D  NP NP NP 
001265 U2 L2 Bi U  B  L2 U2 NP NP 
001266 Ui Li U  D2 Li NP NP NP NP 
001267 Ui F  L2 Fi U  NP NP NP NP 
001268 B2 L  Di Li D2 B2 NP NP NP 
001269 B2 Di B2 L2 D2 NP NP NP NP 
001270 Ui Li U  Di Li NP NP NP NP 
001271 Ui L  U  Li Di L2 NP NP NP 
001272 B2 Di B2 Di L2 Di NP NP NP 
001273 B  U  Bi Ui L2 Bi NP NP NP 
001274 B2 D  L2 Bi L2 B2 NP NP NP 
001275 B2 Di B2 D2 NP NP NP NP NP 
001276 Ui L  U  Bi L  B  NP NP NP 
001277 Ui Li D  Li U  NP NP NP NP 
001278 Ri B2 R  D  NP NP NP NP NP 
001279 Ui L  U  B  L  Bi NP NP NP 
001280 Ui L2 Di L  U  D  NP NP NP 
001281 Bi D  Bi L  D  B2 NP NP NP 
001282 B2 L  D2 B  L2 Di B  NP NP 
001283 B2 Li Di L2 B  D2 NP NP NP 
001284 B2 Li Di B  D2 NP NP NP NP 
001285 R2 U  R  Ui R  D2 Bi NP NP 
001286 U2 F2 R  Di F2 U2 Bi NP NP 
001287 R  D  Li Ri B2 D  Bi NP NP 
001288 U  B  Ui Li B2 Li D  NP NP 
001289 B2 Li Di L  B  D2 NP NP NP 
001290 R  D  Ri B2 D  Bi NP NP NP 
001291 B2 Li Di Li B  D2 NP NP NP 
001292 B2 Li Di L  B  Li D2 NP NP 
001293 B2 Li Bi Di B  D  NP NP NP 
001294 Ri Ui B2 L2 U  R  B  NP NP 
001295 Bi D2 L2 Bi R  D  Ri NP NP 
001296 Bi Ri B  R  Bi D  B  NP NP 
001297 R  Di Ri B  D2 B  D  NP NP 
001298 Bi D  B  L  B2 D  NP NP NP 
001299 U  B2 U2 L  U  Bi L  NP NP 
001300 B2 L  Bi U  Bi Ui L2 NP NP 
001301 U  Ri U  R  U2 Bi L2 NP NP 
001302 U  Bi Ui B2 L2 D  NP NP NP 
001303 B  Li Bi L  B  D  NP NP NP 
001304 Ui L  U  L  B  NP NP NP NP 
001305 B2 D  Bi NP NP NP NP NP NP 
001306 B2 L2 D  L2 Bi L2 NP NP NP 
001307 Ri B  R  B  Li D  NP NP NP 
001308 Ui Li U  D2 Li B  NP NP NP 
001309 B2 Di Bi D2 NP NP NP NP NP 
001310 Ui L  U  B  D2 L  NP NP NP 
001311 Ui L  U  Li B  L2 NP NP NP 
001312 B2 Di Bi Li D2 NP NP NP NP 
001313 B  U  Bi Ui L2 NP NP NP NP 
001314 Ui L  U  Bi L  B2 NP NP NP 
001315 Ui L  U  B  D  L  NP NP NP 
001316 B2 Di B2 D2 B  NP NP NP NP 
001317 U  R2 Bi U  D2 Fi U2 NP NP 
001318 Ri B  R  B  D  NP NP NP NP 
001319 Ui L  U  B  L  NP NP NP NP 
001320 Ui Li U  Di Li B  NP NP NP 
001321 Ui L  U  Li Di L2 B  NP NP 
001322 Ui L2 U  D2 B  D2 NP NP NP 
001323 B2 L2 Ui Li U  D  NP NP NP 
001324 F2 Ri Ui R  F2 D  L2 NP NP 
001325 U  B2 U2 L  U  L  NP NP NP 
001326 B2 D2 Li Di B2 NP NP NP NP 
001327 R2 U  R  Ui R  D2 NP NP NP 
001328 U2 F2 R  Di F2 U2 NP NP NP 
001329 R  D  Li Ri B2 D  NP NP NP 
001330 U  B  Ui B2 Li D  Bi NP NP 
001331 Ri Ui R2 Di F2 L2 Ri NP NP 
001332 R  D  Ri B  Di B  D  NP NP 
001333 F2 Ri Ui R  F2 L2 NP NP NP 
001334 U2 F2 R  Di R2 F2 U2 NP NP 
001335 B2 Li Di Li Bi D2 Bi NP NP 
001336 R  D  L  Ri B2 D  NP NP NP 
001337 Ri F2 L2 Ui L2 F2 R  NP NP 
001338 U2 Fi R  Fi Di F2 U2 NP NP 
001339 R  D  L2 Ri B2 Li D  NP NP 
001340 Ri Ui R2 Di L2 F2 Ri NP NP 
001341 Ri F  Ui Fi L2 R  NP NP NP 
001342 U2 L2 U  B2 L  Ui L  U2 NP 
001343 R  D  Ri B2 D  NP NP NP NP 
001344 B  Li B  D  L2 NP NP NP NP 
001345 B  Li D  L2 B  L2 NP NP NP 
001346 R  Di R2 Bi R  Di Li NP NP 
001347 B  L  B2 L2 Bi D  L2 NP NP 
001348 B  Li D  B2 L  Bi L2 NP NP 
001349 B  L  B  L2 D  NP NP NP NP 
001350 Ri Bi R2 Di Ri Di Li NP NP 
001351 Ri Bi U2 L  U2 R  Di NP NP 
001352 B  Li B  D2 L2 B2 Di NP NP 
001353 Ri Bi R  B2 Di L2 NP NP NP 
001354 B  Li D  L  B  L2 NP NP NP 
001355 B  Li D  B  L2 B2 NP NP NP 
001356 B  L  B  L2 B  D  NP NP NP 
001357 B  Li D  B  L2 B  NP NP NP 
001358 B2 D  F  Li Fi Li NP NP NP 
001359 B  L  B  L2 Bi D  NP NP NP 
001360 U  Fi Ri F  U2 L  U  NP NP 
001361 B  Li D  B  L2 NP NP NP NP 
001362 U  Fi B2 Ri F  Ui L2 NP NP 
001363 B2 L  Bi Li D  L2 NP NP NP 
001364 B  L  B  L2 B2 D  NP NP NP 
001365 B  L  B2 L2 D  Li NP NP NP 
001366 B  Li B2 D  L2 B  L  NP NP 
001367 U  Fi B  Ri F  Ui B  L  NP 
001368 B  Ui Li D  L2 U  NP NP NP 
001369 B  Li B2 D  B2 Li NP NP NP 
001370 B  L2 Ui L  U  D  NP NP NP 
001371 Bi U  R  D  Ri Ui Li D2 NP 
001372 Bi D  B2 Li D2 Bi Di NP NP 
001373 Bi D2 B2 Di Li D  NP NP NP 
001374 B  Ui L  U  B2 D2 NP NP NP 
001375 F2 R  U  F  Di Ri F  NP NP 
001376 Bi D  B2 Li D  Bi NP NP NP 
001377 B  Li Ui D  L  U  NP NP NP 
001378 B  Li B2 D  B  Li NP NP NP 
001379 B  Li B2 D  Li B2 NP NP NP 
001380 B  Li B2 D  Li B  NP NP NP 
001381 F2 Ui Ri Fi L  U  Fi NP NP 
001382 Bi R  Di Ri B2 L2 NP NP NP 
001383 B  Ui Li U  D  L2 NP NP NP 
001384 Bi D  B2 Li D  NP NP NP NP 
001385 B  Li B2 D  Li NP NP NP NP 
001386 B  Li D  B  Li NP NP NP NP 
001387 F2 R  U  F  D2 Ri F  NP NP 
001388 Fi B2 D  F2 Li Fi NP NP NP 
001389 B  Li D  L2 B  Li NP NP NP 
001390 R  Di R2 Bi R  Di NP NP NP 
001391 B  Li B  D  Li NP NP NP NP 
001392 Ri Bi R2 Di Ri Di NP NP NP 
001393 B2 Li B  D  R  Di Ri NP NP 
001394 B  Li Bi D2 B2 Di Li NP NP 
001395 Ri Bi R  B2 Di Li NP NP NP 
001396 B  Li D  L  B  Li NP NP NP 
001397 B2 L  Bi Li D  Li Bi NP NP 
001398 B  L  B  L2 D  L  NP NP NP 
001399 B  L  B2 L2 Bi D  Li NP NP 
001400 Ri Bi R  B2 Di Li Bi NP NP 
001401 Ri Bi R  B2 Di Li B2 NP NP 
001402 B2 D  F  Li Fi NP NP NP NP 
001403 B  L2 B  L  D  L2 NP NP NP 
001404 B2 D  F  Li Fi Bi NP NP NP 
001405 B2 L  Bi Li D  Li NP NP NP 
001406 B  L  B  L2 B2 D  L  NP NP 
001407 Bi R  Di Ri B2 Li NP NP NP 
001408 B  Li B2 D  Li B  L  NP NP 
001409 B  L2 D2 B2 L  D  NP NP NP 
001410 B  L2 Bi D2 L  Bi D  NP NP 
001411 U  Fi B  Ri F  Ui B  L2 NP 
001412 B  L  B2 L2 D  NP NP NP NP 
001413 B  L2 D2 Li B2 L2 D  NP NP 
001414 R2 U2 F  Li U2 Ri Di Ri NP 
001415 B  Li B2 D2 Bi Di NP NP NP 
001416 B  Li B2 D  Bi NP NP NP NP 
001417 B  L2 D  L  B2 D  NP NP NP 
001418 B  Li B2 D2 B2 Di NP NP NP 
001419 B  L2 Di L  B2 D  NP NP NP 
001420 Bi D2 R  Di Ri NP NP NP NP 
001421 B  Li B2 D  B2 NP NP NP NP 
001422 B  Li B2 D  B  NP NP NP NP 
001423 B  L2 D2 L  B2 D  NP NP NP 
001424 B2 L  Bi Li B  D  NP NP NP 
001425 B  Ui Li U  D  Li NP NP NP 
001426 B  L2 Di B2 L  D  NP NP NP 
001427 B  Li B2 D  NP NP NP NP NP 
001428 Fi U  Ri Ui B2 Di F  NP NP 
001429 Ri Bi R  B2 D  Li D2 NP NP 
001430 Ui F  L  Ui R  Fi U2 NP NP 
001431 R2 F  U  F2 Ri F  Ri NP NP 
001432 R2 Bi D  R  Di B  R2 NP NP 
001433 B  Li D  Ri Bi R  NP NP NP 
001434 U2 R2 Ui Fi Ri F  Ri Ui NP 
001435 R  D  L  Ri D2 B  Li D  NP 
001436 Ri B  Ui B2 L  U  R  Di NP 
001437 B  Li D  L2 Ri Bi R  NP NP 
001438 R  Di Ri B  Li D  Bi NP NP 
001439 Ri Bi R2 D  Ri Di NP NP NP 
001440 B  Li B  Di Li D2 NP NP NP 
001441 Ri B  R2 Di Li Ri D  NP NP 
001442 Bi Ri B  R2 Di Ri B  NP NP 
001443 Bi Ri B  R2 Di Ri NP NP NP 
001444 F  U2 F  U  R  U  F2 NP NP 
001445 Ri Bi R2 D  Ri Di B2 NP NP 
001446 R  Di Ri B  Li D  NP NP NP 
001447 Ri Bi R2 D  Ri Di B  NP NP 
001448 Bi Ri B  Li R2 Di Ri NP NP 
001449 B  Li D2 B2 Di Li NP NP NP 
001450 B  L2 B2 D2 L  D  L2 NP NP 
001451 Bi D2 B2 Li D  NP NP NP NP 
001452 B  L2 B2 D2 L  Bi D  NP NP 
001453 Bi D2 B2 Li D  L  NP NP NP 
001454 B  Li D2 B2 Di NP NP NP NP 
001455 Ri Bi R  Bi Di NP NP NP NP 
001456 B  Li D  L2 D  B2 Di NP NP 
001457 B  L2 Di L  D2 B2 Di NP NP 
001458 Bi R  D2 Ri B2 D  Bi NP NP 
001459 Bi R  D  Ri D2 Bi NP NP NP 
001460 B  L2 B2 D2 L  D  B  NP NP 
001461 B  Li B  D2 B  Di NP NP NP 
001462 B  L2 B2 D2 L  D  NP NP NP 
001463 Bi D2 B2 Li D  L2 NP NP NP 
001464 Bi R  D2 Ri Bi D  NP NP NP 
001465 Bi R  D  Ri D2 B  NP NP NP 
001466 B  Li D2 B2 Di L2 NP NP NP 
001467 Bi R  D  Ri D2 NP NP NP NP 
001468 Bi D  B2 D  Li D  NP NP NP 
001469 B  Li Bi D2 Bi Di NP NP NP 
001470 Bi R  Di Li Ri Bi NP NP NP 
001471 B  Li B  D2 Li Di NP NP NP 
001472 Ri B  Li R2 D  L2 Ri NP NP 
001473 B  Ui Li U  B2 D  Bi NP NP 
001474 Ri B  Li R2 D  Li Ri NP NP 
001475 Bi R  Di Ri Bi NP NP NP NP 
001476 B2 Li Fi Ri Di R  F  NP NP 
001477 U2 F2 R  D  F  R  F  U2 NP 
001478 Ri U  Ri F  Ui R2 Bi NP NP 
001479 U  R  Di Bi Ri Ui L2 D2 NP 
001480 B  L  B2 L2 D  L  B  NP NP 
001481 Fi U  Ri Ui F  L2 B2 NP NP 
001482 U  Fi Ri F  Ui B2 NP NP NP 
001483 B  Li Ri Bi R  D  Li NP NP 
001484 R  D2 R2 Bi R  Di NP NP NP 
001485 B  Li Ri Bi R  D  NP NP NP 
001486 B  Ui Li U  D  B  NP NP NP 
001487 Bi R  Di Ri Bi L2 NP NP NP 
001488 F  U  F2 R  D  R2 F  NP NP 
001489 Bi R  Di L2 Ri Bi NP NP NP 
001490 B  Li Ri Bi R  Bi D  NP NP 
001491 B  Li D  Li B2 NP NP NP NP 
001492 B  Li Bi D  L  Bi NP NP NP 
001493 F  Ui L  U  Fi L  Bi NP NP 
001494 B  Li Bi D  L2 Bi NP NP NP 
001495 F  Ui L  U  Fi L2 Bi NP NP 
001496 B  Li D  B2 NP NP NP NP NP 
001497 B  Li Bi Di Li D2 Bi NP NP 
001498 B  Li B  D  Ri B  R  NP NP 
001499 B  Li Bi D2 B2 Di B  NP NP 
001500 B  L2 Di L  D  B2 NP NP NP 
001501 Ri Bi R  Di Bi NP NP NP NP 
001502 B  Li D  L2 B2 NP NP NP NP 
001503 B  Li D  B2 L  NP NP NP NP 
001504 B  L  B  L2 D  L2 B  NP NP 
001505 B  L  B2 L2 B2 D  B2 NP NP 
001506 B  L2 B2 Di L  D  NP NP NP 
001507 B  L2 D  L  D  B2 NP NP NP 
001508 B  Li D  B2 L2 NP NP NP NP 
001509 B  Li D  L  B2 NP NP NP NP 
001510 B  L2 D2 L  D  B2 NP NP NP 
001511 B  Li Bi D  Bi NP NP NP NP 
001512 B  Li D  Li B  NP NP NP NP 
001513 B  Li Bi D  L  B2 NP NP NP 
001514 B2 D  F  Li Fi L  NP NP NP 
001515 Ri B  Li R  B2 D  NP NP NP 
001516 F  Ui L  U  Fi L2 B2 NP NP 
001517 B  Li D  B  NP NP NP NP NP 
001518 Bi Ri Bi R2 Di Ri NP NP NP 
001519 B2 L  Bi L  B  L2 D  NP NP 
001520 B  Li Bi D2 B2 Di NP NP NP 
001521 Ri Bi R  B2 Di NP NP NP NP 
001522 B  Li D  L  B  NP NP NP NP 
001523 B  L2 D2 L  D  B  NP NP NP 
001524 B  Li B  D  NP NP NP NP NP 
001525 B  Li D  L2 B  NP NP NP NP 
001526 B  L2 Di L  D  B  NP NP NP 
001527 B  L  B2 L2 Bi D  NP NP NP 
001528 B  Li D  B2 L  Bi NP NP NP 
001529 B  L  B  L2 D  L2 NP NP NP 
001530 U  Fi B2 Ri F  Ui NP NP NP 
001531 B2 L  Bi Li D  NP NP NP NP 
001532 B  L  Bi L2 B2 D  NP NP NP 
001533 Bi R  Di Li Ri B2 NP NP NP 
001534 B  Li B2 D  B  L  NP NP NP 
001535 R  D  L2 R2 Bi R  Di NP NP 
001536 B  Ui Li U  B2 D  B2 NP NP 
001537 B  L2 D2 B2 L  D  L  NP NP 
001538 Bi R  Di Ri B2 NP NP NP NP 
001539 B2 Li Bi Di Li Bi D  NP NP 
001540 R  D  L  R2 Bi R  Di NP NP 
001541 Ri U  Ri F  Ui R2 B2 NP NP 
001542 B  Li B2 D  Bi L  NP NP NP 
001543 B  L2 B2 D  L  D  NP NP NP 
001544 Bi R  Di L2 Ri B2 NP NP NP 
001545 B  L  B2 L2 D  L  NP NP NP 
001546 Fi U  Ri Ui F  L2 B  NP NP 
001547 B  Ui L2 U  B  L  D  NP NP 
001548 R  D  R2 Bi R  Di NP NP NP 
001549 U  Fi Ri F  Ui B  NP NP NP 
001550 B  L2 Ui L  U  D  L2 NP NP 
001551 B  Ui Li U  D  NP NP NP NP 
001552 Bi D  B2 Li D  L2 NP NP NP 
001553 B  Li B2 D  L  NP NP NP NP 
001554 B  L2 Ui L  U  D  Li NP NP 
001555 R2 Ui L  Fi U  R2 NP NP NP 
001556 B  Li B2 D  B2 L2 NP NP NP 
001557 B  Li B2 D  B  L2 NP NP NP 
001558 R2 Fi R  U  Ri F  R2 NP NP 
001559 U  Ri U  F  R  U2 NP NP NP 
001560 U  B  Ui Ri Bi R  Bi Di NP 
001561 Bi D  Li B2 Di Li D  NP NP 
001562 R2 Fi U  Ri F  Ri NP NP NP 
001563 B  Li B2 D  L2 Bi NP NP NP 
001564 U  Fi B  Ri F  Ui Bi NP NP 
001565 B  L  B2 L2 D  L2 B2 NP NP 
001566 Bi R  Di Ri B2 L  NP NP NP 
001567 Ui Li U2 D2 B  Ui D2 NP NP 
001568 B  Li B2 D  L2 B2 NP NP NP 
001569 B  Li B2 D  L2 B  NP NP NP 
001570 U  Fi B  Ri F  Ui B  NP NP 
001571 B  L  B2 L2 D  L2 NP NP NP 
001572 U  Fi B  Ri F  Ui NP NP NP 
001573 Bi D  B2 Li D  Li NP NP NP 
001574 B  Li B2 D  L2 NP NP NP NP 
001575 B  L  B  L2 D  Li NP NP NP 
001576 B  L  B2 L2 Bi D  L  NP NP 
001577 F  U2 F  Ri U2 F2 Di NP NP 
001578 B2 L  Di Ri Bi R  D2 NP NP 
001579 B2 L2 Bi Li B  D  NP NP NP 
001580 B  L2 B  L  D  NP NP NP NP 
001581 B2 L  B  D2 R  Di Ri NP NP 
001582 B2 L  Ri B  R  B  Di NP NP 
001583 U2 F  Ri Fi U2 B2 Di NP NP 
001584 Ri Bi R  B2 Di L  NP NP NP 
001585 B2 L  Ri B  R  Di NP NP NP 
001586 B  Li B  D  L  B2 NP NP NP 
001587 B  Li D  B  L  NP NP NP NP 
001588 B  L2 B  D2 L  D  NP NP NP 
001589 B  L2 Di B  L  D  NP NP NP 
001590 U2 F  Ri Fi U2 Di NP NP NP 
001591 B  Li D  B  L  Bi NP NP NP 
001592 B  Li B  D  L  NP NP NP NP 
001593 B  L2 D2 B  L  D  NP NP NP 
001594 B2 L  Bi Li D  L  NP NP NP 
001595 B2 L  B  R  Di Ri NP NP NP 
001596 B  Li D  Li Bi NP NP NP NP 
001597 B  Li Bi D  L  NP NP NP NP 
001598 F  Ui L  U  Fi L  NP NP NP 
001599 B  Li Bi D  L2 NP NP NP NP 
001600 F  Ui L  U  Fi L2 NP NP NP 
001601 B  Li D  Bi NP NP NP NP NP 
001602 B  Li Bi Di Li D2 NP NP NP 
001603 Ui L  U  L2 B  L  D2 Bi NP 
001604 B  Li B2 L2 B  L2 D  NP NP 
001605 B  Li Bi Di L2 D2 NP NP NP 
001606 B  L2 Bi D  L  D  NP NP NP 
001607 B  L  B  L2 D  L2 B2 NP NP 
001608 B  Li D  Bi L  NP NP NP NP 
001609 B  Li Bi D  Li NP NP NP NP 
001610 F  Ui L  U  Fi Li NP NP NP 
001611 B  Li Bi D  NP NP NP NP NP 
001612 F  Ui L  U  Fi NP NP NP NP 
001613 B  Li D  Bi L2 NP NP NP NP 
001614 Ri Bi R  Di NP NP NP NP NP 
001615 B  Li D  L2 Bi NP NP NP NP 
001616 Ui F  L  Fi L2 U  NP NP NP 
001617 Bi R  Di Li Ri NP NP NP NP 
001618 B  Ui Li U  B2 D  Li NP NP 
001619 R  D  Li Ri B  Li D  NP NP 
001620 B  Ui Li U  B2 D  NP NP NP 
001621 B  Li B2 D  L  B2 Li NP NP 
001622 Bi R  Di Ri NP NP NP NP NP 
001623 Bi U2 R  Fi Di Ri U2 NP NP 
001624 R  D  L  Ri B  Li D  NP NP 
001625 Ri U  Ri F  Ui R2 NP NP NP 
001626 B2 U  Bi Ui Li D  B2 NP NP 
001627 U  Fi Ri F  Ui Bi NP NP NP 
001628 Bi R  Di L  R2 B2 R  NP NP 
001629 Bi R  Di L  Ri NP NP NP NP 
001630 Fi U  Ri Ui Bi D2 F  NP NP 
001631 B  Li B2 D  L  B2 NP NP NP 
001632 B  Ui Li U  B2 D  L2 NP NP 
001633 Fi U  Ri Ui F  L  Bi NP NP 
001634 Bi R  Di L2 Ri NP NP NP NP 
001635 U  Bi Di Fi Ri F  Ui NP NP 
001636 Fi U  Ri Ui F  L2 Bi NP NP 
001637 U  B  Ui B  Li B2 D  NP NP 
001638 B  Li D  Li NP NP NP NP NP 
001639 B  L2 D2 L  D  L2 NP NP NP 
001640 B  L  F  L2 Fi D  NP NP NP 
001641 B  L2 D2 L  D  Li NP NP NP 
001642 Ri Bi R  B  Di L2 NP NP NP 
001643 B  Li D  NP NP NP NP NP NP 
001644 Ri B  L  R  B  L2 D  NP NP 
001645 Ui L  U  L2 B  L  D2 NP NP 
001646 B  L2 D  L2 D2 Li D  NP NP 
001647 F  Ui L  U  Fi Li B  NP NP 
001648 B  L2 D  L  D  NP NP NP NP 
001649 Ri Bi R  B  Li Di NP NP NP 
001650 B  Li D  L  NP NP NP NP NP 
001651 B  L2 D2 L  D  NP NP NP NP 
001652 B  Li Bi D  B  NP NP NP NP 
001653 B  L2 Di L  D  NP NP NP NP 
001654 Ri Bi R  B  Di NP NP NP NP 
001655 B  Li D  L2 NP NP NP NP NP 
001656 Ui Li U  Di B  D2 NP NP NP 
001657 B  L  B  L2 D  L2 Bi NP NP 
001658 B  L  B2 L2 B2 D  NP NP NP 
001659 Fi U  Ri Ui F  Li NP NP NP 
001660 Fi U  Ri Ui D2 F  L2 NP NP 
001661 F  U  Ri Ui R  F2 Ri F  NP 
001662 Fi U  Ri Ui D2 F  Li NP NP 
001663 R2 U  R  Bi Ui R  D2 NP NP 
001664 Fi U  Ri Ui F  NP NP NP NP 
001665 F2 Ri Bi Ui R  F2 Di NP NP 
001666 R2 Ui L  F2 Li F  U  R2 NP 
001667 Ri U  Ri F  Ui R2 B  NP NP 
001668 B  Li B2 D  L  Bi NP NP NP 
001669 Fi U  Ri Ui D  F  NP NP NP 
001670 Bi R  Di Ri Bi L2 B2 NP NP 
001671 Fi U  Ri Ui F  L  NP NP NP 
001672 Fi U  Ri Ui D2 F  NP NP NP 
001673 B  Li B2 D  Bi L  Bi NP NP 
001674 U  B  Ui B  Li Bi D  NP NP 
001675 F  U  B2 U2 L  U  Fi NP NP 
001676 Fi U  Ri Ui F  L2 NP NP NP 
001677 U  Fi Ri F  Ui NP NP NP NP 
001678 Ui L2 F2 Li Fi U2 Ri Ui NP 
001679 B2 U  Bi Ui Li Bi D  NP NP 
001680 B2 L2 D2 NP NP NP NP NP NP 
001681 B2 Di L  B2 L  Di NP NP NP 
001682 B2 L  Di B  Di B2 L  NP NP 
001683 U  B2 R2 Di R2 Ui L2 NP NP 
001684 B  L  F  B  L  Fi L  NP NP 
001685 U2 R  F2 Ri U2 B2 L2 NP NP 
001686 B2 Ui L2 U  Li D2 L  NP NP 
001687 B2 L  Di B2 L  Di NP NP NP 
001688 B2 D2 L2 NP NP NP NP NP NP 
001689 B2 Ui L2 U  D2 B2 NP NP NP 
001690 B2 L  Di B  Di L  NP NP NP 
001691 B2 L  D2 B2 L  NP NP NP NP 
001692 Ui L2 U  L2 B2 L2 D  NP NP 
001693 F  B2 Li Fi Li D2 NP NP NP 
001694 Fi B2 D  F  D  L2 NP NP NP 
001695 B2 Ui L2 U  D2 NP NP NP NP 
001696 B2 L  D  B2 D  L  NP NP NP 
001697 B2 L  B2 L  B2 D2 NP NP NP 
001698 U  L2 F2 U  D  R2 F2 NP NP 
001699 B2 L  D2 Bi L  NP NP NP NP 
001700 B2 Di L2 B  Di NP NP NP NP 
001701 Bi D  B  L2 B2 L  D2 NP NP 
001702 U  B  R2 Di R2 Ui L  NP NP 
001703 U  B  U2 L  U  L  D  NP NP 
001704 Bi Di Bi D2 Li NP NP NP NP 
001705 Bi D  Li B2 Di B  D2 NP NP 
001706 Bi D2 B2 Di B  Li D2 NP NP 
001707 Ui L  U2 B  Ui L  D  NP NP 
001708 Bi D  Li D2 Bi D2 NP NP NP 
001709 B2 D  B  D  Li NP NP NP NP 
001710 Bi D  Li Bi D2 NP NP NP NP 
001711 Fi R  Di R  Bi R2 F  NP NP 
001712 Bi D  Bi L2 D2 L  NP NP NP 
001713 B2 Li Di Bi L2 Di NP NP NP 
001714 B2 Li Fi D  F  D  NP NP NP 
001715 Bi D  Li Bi D2 Bi NP NP NP 
001716 Bi D  Li Bi D2 B2 NP NP NP 
001717 Bi D  Li Di Bi D2 NP NP NP 
001718 U  B  Ui B2 L  D2 NP NP NP 
001719 U  Fi R2 F  Ui Di Li NP NP 
001720 Bi Di Bi D2 B2 Li NP NP NP 
001721 B2 Di B  D  Li D2 NP NP NP 
001722 B2 L2 Ui D2 L  U  NP NP NP 
001723 B2 L  D2 B  L2 NP NP NP NP 
001724 B2 L  D  B2 D  L2 NP NP NP 
001725 B2 Di L  B2 Di L2 NP NP NP 
001726 R  D  L  Ri Di B2 D2 NP NP 
001727 B2 L  D2 L2 NP NP NP NP NP 
001728 B2 Li B  D2 Bi D2 NP NP NP 
001729 B2 L  Di B2 Di L2 NP NP NP 
001730 B2 D2 Li NP NP NP NP NP NP 
001731 F  B  Li B  Li Fi NP NP NP 
001732 B2 L  Di B  Di L2 NP NP NP 
001733 B2 L  D2 B2 L2 NP NP NP NP 
001734 U2 R  F2 Ri U2 B2 Li NP NP 
001735 B2 L  D2 B2 L2 Bi NP NP NP 
001736 B  L  F  B  L  Fi L2 NP NP 
001737 B2 D2 Li D  B2 Di NP NP NP 
001738 Fi B2 D  F  D  Li NP NP NP 
001739 R  D  Ri Di B2 D2 NP NP NP 
001740 U2 Li R2 F2 L  R2 U2 NP NP 
001741 B2 L  D2 Bi L2 NP NP NP NP 
001742 B2 D2 Li D  B  Di NP NP NP 
001743 B2 D  B  Di L2 D2 NP NP NP 
001744 B2 U  Bi Ui F  L2 Fi NP NP 
001745 Ui L  U  L  Bi D  NP NP NP 
001746 U  B  R2 Di R2 Ui L2 NP NP 
001747 Bi D2 B  L2 D  B2 D2 NP NP 
001748 Bi D  B  L2 B2 D2 L2 NP NP 
001749 U  Fi R2 F  Ui Bi Di NP NP 
001750 B  U  Bi Ui B2 L2 D  NP NP 
001751 B2 D  B  D  NP NP NP NP NP 
001752 Bi D  Li Bi D2 L  NP NP NP 
001753 U  Fi R2 F  Ui Di Bi NP NP 
001754 Bi Di Bi D2 B  NP NP NP NP 
001755 U  Fi R2 F  Ui Di B2 NP NP 
001756 Bi Di Bi D2 NP NP NP NP NP 
001757 Ui L  U  B  L  B2 D  NP NP 
001758 B2 D  B  D2 B2 Di NP NP NP 
001759 B  Ui F  L2 Fi U  NP NP NP 
001760 Bi Di Bi D2 Bi NP NP NP NP 
001761 U  Fi R2 F  Ui Di NP NP NP 
001762 Bi Di Bi D2 B2 NP NP NP NP 
001763 B2 D  B  D2 B  Di NP NP NP 
001764 B2 Li D2 B2 L  NP NP NP NP 
001765 B2 Li D2 Bi L2 NP NP NP NP 
001766 B2 Li Di L2 Di NP NP NP NP 
001767 B2 Li D2 Bi Li NP NP NP NP 
001768 B2 Li Di L  Di L2 NP NP NP 
001769 B2 Li D2 B2 L2 NP NP NP NP 
001770 R  F  D2 Fi R2 B2 R  D2 NP 
001771 R  Di Ri Bi Di Bi D2 NP NP 
001772 U  B2 Ui Li B2 D2 NP NP NP 
001773 B2 Li D2 Bi L  B2 NP NP NP 
001774 B2 Li D2 B2 Li B  NP NP NP 
001775 B2 Li D2 NP NP NP NP NP NP 
001776 B2 Li D2 B2 Li NP NP NP NP 
001777 B2 Li D2 Bi NP NP NP NP NP 
001778 B2 Li D2 Bi L  B  NP NP NP 
001779 B2 Li D2 Bi L  NP NP NP NP 
001780 B2 Li Di L  Di NP NP NP NP 
001781 B2 Li D2 B2 NP NP NP NP NP 
001782 B2 Li D2 B2 Li B2 NP NP NP 
001783 B2 Li D2 B  NP NP NP NP NP 
001784 B2 Li D2 Bi L  Bi NP NP NP 
001785 Bi D  Bi D2 L  NP NP NP NP 
001786 B2 Di B  Di B  L  NP NP NP 
001787 Bi U  D  Bi Ui D2 NP NP NP 
001788 B2 Di B  Di B  L2 NP NP NP 
001789 B2 Di B  Di B2 Li NP NP NP 
001790 Bi D  Bi D2 L2 NP NP NP NP 
001791 Ri B2 R  Di Bi Di NP NP NP 
001792 Bi D  Li D2 L  Bi D2 NP NP 
001793 U  B  Ui L2 B2 D2 NP NP NP 
001794 B2 Di B  Di Bi NP NP NP NP 
001795 Bi D  Bi D2 Li B  NP NP NP 
001796 Bi D  Bi D2 B2 NP NP NP NP 
001797 Bi D  Bi D2 Li NP NP NP NP 
001798 Bi D  Bi D2 B  NP NP NP NP 
001799 B2 Di B  Di B2 NP NP NP NP 
001800 B2 Di B  Di B  NP NP NP NP 
001801 B2 Di B  Di B2 L  NP NP NP 
001802 Bi D  Bi D2 NP NP NP NP NP 
001803 Bi D  Bi D2 Li B2 NP NP NP 
001804 Bi D  Bi D2 Bi NP NP NP NP 
001805 B2 Di B  Di NP NP NP NP NP 
001806 B2 Di Li D  L2 D2 NP NP NP 
001807 B2 L  Di B  L2 Di NP NP NP 
001808 R  Di Ri B2 L  D2 NP NP NP 
001809 B2 Di Li B2 Di L2 NP NP NP 
001810 R  Di Ri B2 D2 L2 NP NP NP 
001811 Bi D  Bi L  D2 B  L  NP NP 
001812 R2 U  R  Ui R  Di B2 NP NP 
001813 R  Di R2 B2 R  D2 NP NP NP 
001814 B2 Di Li Di NP NP NP NP NP 
001815 R  Di Ri B2 Di B  Di NP NP 
001816 R  Di Ri B2 L2 D2 NP NP NP 
001817 B2 Di Li Bi Di NP NP NP NP 
001818 B2 Di L  B2 L2 Di NP NP NP 
001819 B2 Di Li B2 Di Li NP NP NP 
001820 B2 L  Di L2 Di NP NP NP NP 
001821 B2 Di Li B2 Di NP NP NP NP 
001822 R  Di Ri B2 D2 NP NP NP NP 
001823 B2 Di Li D  L  D2 NP NP NP 
001824 Ri B  R2 Di Ri B  D2 NP NP 
001825 B2 L  Di Bi L2 Di NP NP NP 
001826 B2 Di Li B  Di NP NP NP NP 
001827 Bi U2 R2 F  R2 U2 NP NP NP 
001828 B2 Di B2 L  Di Bi NP NP NP 
001829 Bi D2 Li Bi D2 NP NP NP NP 
001830 B2 L  D2 B  Li B  NP NP NP 
001831 Bi D2 Li Bi D2 L  NP NP NP 
001832 B2 Di Bi Di B2 L2 NP NP NP 
001833 Bi R  Fi R  F  R2 NP NP NP 
001834 Bi D2 Bi L  D2 NP NP NP NP 
001835 B2 D2 B  NP NP NP NP NP NP 
001836 B2 D2 Ri B  R  NP NP NP NP 
001837 Bi D2 Bi D2 NP NP NP NP NP 
001838 B2 D2 B  D  Bi Di NP NP NP 
001839 B2 Di B2 Li Di Bi NP NP NP 
001840 U2 R  F2 Ri U2 Bi NP NP NP 
001841 Bi D2 Li Bi D2 L2 NP NP NP 
001842 Bi D2 L  Bi D2 NP NP NP NP 
001843 Bi D2 Bi L2 D2 NP NP NP NP 
001844 B2 Di Bi Di B2 NP NP NP NP 
001845 Bi D2 L2 Bi D2 NP NP NP NP 
001846 B2 R  D2 Ri B  NP NP NP NP 
001847 B2 Di B2 Di Bi NP NP NP NP 
001848 B2 U2 R2 D2 R2 U2 NP NP NP 
001849 B  L2 Di L2 B  D2 NP NP NP 
001850 Fi B2 D  F  D  NP NP NP NP 
001851 B2 L  D2 B  Li NP NP NP NP 
001852 B2 L  D  B2 D  Li NP NP NP 
001853 U2 Ri F2 R  U2 L2 B2 NP NP 
001854 B2 Ui L2 U  Li D2 Li NP NP 
001855 B2 L  Di B2 Li Di NP NP NP 
001856 B2 D2 NP NP NP NP NP NP NP 
001857 B2 L  Di Li Di NP NP NP NP 
001858 B2 L  Di B  Di Li NP NP NP 
001859 B2 R  D2 Ri NP NP NP NP NP 
001860 B2 L  D2 Li NP NP NP NP NP 
001861 F  B2 Li Fi L  D2 NP NP NP 
001862 B2 Li F  L  Fi D2 NP NP NP 
001863 U  B2 R2 Di R2 Ui NP NP NP 
001864 B2 Di Li Bi L  Di NP NP NP 
001865 U2 R  F2 Ri U2 B2 NP NP NP 
001866 B  L2 D2 L2 B  D2 NP NP NP 
001867 B2 L  D2 Bi Li NP NP NP NP 
001868 B2 D  L2 Bi L2 D  NP NP NP 
001869 Bi D  Bi L  D2 NP NP NP NP 
001870 B2 L  B  L2 Di Bi D2 NP NP 
001871 B2 Li Di L2 Bi Di NP NP NP 
001872 B  Ui F  L2 Fi L  U  NP NP 
001873 Ui L  U  L  Bi D  L  NP NP 
001874 U  B  Ui B2 L  D2 L2 NP NP 
001875 R2 U  R  Ui R  Di B  NP NP 
001876 R2 Fi U  F  Li R2 Di NP NP 
001877 B2 D  B  D  L  NP NP NP NP 
001878 B2 Di Li B  Di Bi NP NP NP 
001879 Bi U  D  Bi Ui L  D2 NP NP 
001880 U  B  Ui B2 Li D2 NP NP NP 
001881 R  Di Ri B2 L2 D2 Bi NP NP 
001882 B2 Li Di Li Bi Di NP NP NP 
001883 Ri Ui L2 B  U  R  D  NP NP 
001884 B2 Li Di Bi Di NP NP NP NP 
001885 B2 L  D2 B2 U  B  Ui NP NP 
001886 U  B  Ui L2 B2 L  D2 NP NP 
001887 R  Di Ri B2 D2 Bi NP NP NP 
001888 Bi Di Bi D2 B2 L  NP NP NP 
001889 B2 Di Li B2 Di Bi NP NP NP 
001890 U  B  U  R2 F2 R2 U2 NP NP 
001891 Bi D  L2 Bi D2 NP NP NP NP 
001892 B2 D2 B  D  Bi L2 Di NP NP 
001893 B2 Li Fi D  F  D  Li NP NP 
001894 Fi R2 Fi U  R2 F2 Di NP NP 
001895 Bi D  Bi L  D2 L  NP NP NP 
001896 Bi D2 L  Di L2 Bi D2 NP NP 
001897 R2 Fi U  F  R2 Di NP NP NP 
001898 U  B  Ui B2 D2 NP NP NP NP 
001899 Bi D  Li Bi D2 Li NP NP NP 
001900 U  B  Ui Bi D2 Bi D2 NP NP 
001901 Bi D  Bi L2 D2 NP NP NP NP 
001902 U  B  Ui B2 L  D2 Li NP NP 
001903 Bi D  Bi L2 D2 Bi NP NP NP 
001904 Ui L  U  L  Bi D  L2 NP NP 
001905 U  B  R2 Di R2 Ui NP NP NP 
001906 U2 R  F2 Ri Ui B  Ui NP NP 
001907 Bi D  B  L2 B2 D2 NP NP NP 
001908 U  Fi R2 F  Ui Di L2 NP NP 
001909 Bi D  F  B2 L2 Fi NP NP NP 
001910 B2 Di B  D  L2 D2 NP NP NP 
001911 F2 Ri U2 B2 R  F2 NP NP NP 
001912 U  B2 R2 Di R2 Ui L  NP NP 
001913 B  L  F  B  L  Fi NP NP NP 
001914 Ui L  U  B2 L  Bi D  NP NP 
001915 B2 L  D  B  D  NP NP NP NP 
001916 R  D2 L2 Ri B2 D2 NP NP NP 
001917 B2 Ui L2 U  Li D2 NP NP NP 
001918 B2 L  Di B2 Di NP NP NP NP 
001919 B2 D2 L  NP NP NP NP NP NP 
001920 F2 Ri U2 Bi R  F2 NP NP NP 
001921 B2 L  Di B  Di NP NP NP NP 
001922 B2 L  D2 B2 NP NP NP NP NP 
001923 B2 L  Di B  Di Bi NP NP NP 
001924 B2 L  D2 B  NP NP NP NP NP 
001925 B2 L  D  B2 D  NP NP NP NP 
001926 B2 Di L  B2 Di NP NP NP NP 
001927 B2 L  Di B  Di B2 NP NP NP 
001928 B2 L  D2 NP NP NP NP NP NP 
001929 Ri D2 F2 Li U2 F2 NP NP NP 
001930 B2 L  D2 Bi NP NP NP NP NP 
001931 B2 Di L  B  Di NP NP NP NP 
001932 U  R2 U  Di R2 U2 NP NP NP 
001933 B2 Di B2 L  Di NP NP NP NP 
001934 Ui L  U  L  D  NP NP NP NP 
001935 B2 Di B2 Di L2 NP NP NP NP 
001936 Ui L  U  L  D  L  NP NP NP 
001937 U2 Ri F2 R  U2 L2 NP NP NP 
001938 B2 Di B2 D  Li D2 NP NP NP 
001939 B2 Li D  R  D  Ri NP NP NP 
001940 B2 D2 B2 NP NP NP NP NP NP 
001941 B2 D2 B2 Ri B  R  NP NP NP 
001942 B2 Di B2 Li Di NP NP NP NP 
001943 U2 R  F2 Ri U2 NP NP NP NP 
001944 B2 Di B2 L2 Di NP NP NP NP 
001945 B2 Di B2 Di Li NP NP NP NP 
001946 Ui L  U  L  D  L2 NP NP NP 
001947 B2 Di B2 Di NP NP NP NP NP 
001948 Ui L  U  L  D  Li NP NP NP 
001949 U2 Ri F2 R  U2 NP NP NP NP 
001950 Ri B2 R  D2 NP NP NP NP NP 
001951 Ui L  U  B  L  Bi D  NP NP 
001952 Ui L2 Di L  U  D2 NP NP NP 
001953 Bi D  Bi L  D2 B2 NP NP NP 
001954 B2 L  Di B  L2 Di B  NP NP 
001955 B2 Li Di L2 B  Di NP NP NP 
001956 B2 Li Bi Di B  D2 NP NP NP 
001957 R  D  L  Ri B2 D2 Bi NP NP 
001958 R  Di Ri B2 D2 B  Li NP NP 
001959 R2 U  R  Ui R  Di Bi NP NP 
001960 R  Di R2 B2 R  D2 B  NP NP 
001961 B2 Li Di B  Di NP NP NP NP 
001962 R  D  Ri B2 D2 Bi NP NP NP 
001963 B2 Li D2 B2 D  B  Di NP NP 
001964 U  B  Ui Li B2 Li D2 NP NP 
001965 R  Di Ri B2 D2 B  NP NP NP 
001966 B2 Li Di Li B  Di NP NP NP 
001967 B2 Di Li B2 Di B  NP NP NP 
001968 B2 Di Li B  Di B  NP NP NP 
001969 R  Di Ri B  D2 B  D2 NP NP 
001970 Bi D  B  L  B2 D2 NP NP NP 
001971 R  Di Ri B2 L2 D2 B  NP NP 
001972 B2 Di Li Bi Di B  NP NP NP 
001973 U2 Ri F2 Ui R  Bi Ui NP NP 
001974 U  Bi Ui B2 L2 D2 NP NP NP 
001975 B  Li Bi L  B  D2 NP NP NP 
001976 B  U  B  Ui D2 NP NP NP NP 
001977 B2 L  D2 B  Li Bi NP NP NP 
001978 Ri B  R  B  D2 L2 NP NP NP 
001979 B2 Di B2 D2 B  D  NP NP NP 
001980 B  L  Fi D  F2 L  Fi NP NP 
001981 Ri B  R  B  Li D2 NP NP NP 
001982 B2 D2 Bi NP NP NP NP NP NP 
001983 B2 L  B  Li Bi D2 NP NP NP 
001984 Ri B  R  B  L2 D2 NP NP NP 
001985 B2 Di Bi Di NP NP NP NP NP 
001986 B2 Di B2 L2 B  Di NP NP NP 
001987 B2 R  D2 Ri Bi NP NP NP NP 
001988 B2 Di B2 Di B  NP NP NP NP 
001989 U  Bi R2 Di R2 Ui NP NP NP 
001990 Ri B  R  B  D2 NP NP NP NP 
001991 U  Bi Ui B2 L  D2 NP NP NP 
001992 B  R2 F  L2 Fi R2 NP NP NP 
001993 U2 R  F2 Ri U2 B  NP NP NP 
001994 Ui L2 U  D2 B  Di NP NP NP 
001995 B2 L2 Ui Li U  D2 NP NP NP 
001996 B2 L  Di B  L2 Di B2 NP NP 
001997 R  D  L2 Ri B2 D2 NP NP NP 
001998 B2 Li Bi Di B  D2 B  NP NP 
001999 R  D  L  Ri B2 D2 NP NP NP 
002000 R2 F2 Li U  F2 R2 Di NP NP 
002001 R2 U  R  Ui R  Di NP NP NP 
002002 U2 F2 R  Di F2 U2 D  NP NP 
002003 B2 Ui D2 L  U  NP NP NP NP 
002004 B2 Di Li B2 Di B2 NP NP NP 
002005 R  D  Li Ri B2 D2 NP NP NP 
002006 U2 R  Di F2 Ri U2 NP NP NP 
002007 R  D  Ri B  Di B  D2 NP NP 
002008 B2 Li Di Li B2 Di NP NP NP 
002009 B2 Di Li B  Di B2 NP NP NP 
002010 U  R  D  R  Di R2 Ui NP NP 
002011 R  D  L  Ri B2 D2 L2 NP NP 
002012 B2 Di Li Bi Di B2 NP NP NP 
002013 Ri F  Ui Fi L2 R  D  NP NP 
002014 B2 Di Li B2 Di Li B2 NP NP 
002015 R  D  Ri B2 D2 NP NP NP NP 
002016 Ri Bi R  B2 L2 NP NP NP NP 
002017 U2 F  Ri Fi U2 L  NP NP NP 
002018 B  L2 Di L  D2 B  L2 NP NP 
002019 B  L  B  L2 B  D2 NP NP NP 
002020 F  U2 F  Ri U2 F2 L  NP NP 
002021 B2 Li Bi L2 B2 L  D2 NP NP 
002022 B2 L2 Bi Li B  D2 L  NP NP 
002023 B  L  B  L2 D2 NP NP NP NP 
002024 R2 U  F2 Ui R  Bi R  NP NP 
002025 B  Li B  D2 L2 B2 NP NP NP 
002026 R2 Ui F2 U  R  Bi R  NP NP 
002027 Ri Bi U2 L  U2 R  NP NP NP 
002028 Ri Bi R  B2 Di L2 D  NP NP 
002029 Ri Bi U2 L  U2 R  Bi NP NP 
002030 B  Li B  D2 L2 B  NP NP NP 
002031 B  Li B  D2 L2 NP NP NP NP 
002032 U2 F  Ri Fi U2 B  L  NP NP 
002033 B  Li D  B  L2 D  NP NP NP 
002034 Ui L  U  B2 L2 B  Di NP NP 
002035 B2 L  Bi Li D2 L2 NP NP NP 
002036 B  L  B  L2 B2 D2 NP NP NP 
002037 U2 F  Ri U  Fi U  NP NP NP 
002038 B  L2 B2 D  L  D2 L2 NP NP 
002039 F  U  B  U  F  Ri U2 F2 NP 
002040 R  D  R2 Bi L2 R  NP NP NP 
002041 U2 F  Ui Ri U  Fi U2 NP NP 
002042 Bi D  B2 Li Bi D2 NP NP NP 
002043 Bi D  B2 Li B2 D2 NP NP NP 
002044 U2 R  Di F  Ri U2 NP NP NP 
002045 B  Ui Li D  L2 U  D  NP NP 
002046 Bi D2 B2 Di Li D2 NP NP NP 
002047 F2 R  U2 F  Di Ri F  NP NP 
002048 Bi D  B2 Li D2 Bi NP NP NP 
002049 B  Ui L  U  B2 Di NP NP NP 
002050 Bi D  B2 Li D2 B2 NP NP NP 
002051 R  D  L2 R2 Bi L2 R  NP NP 
002052 B  Ui L  U  D2 B2 Di NP NP 
002053 Ri F  Bi U  Fi R  B  NP NP 
002054 Bi D  B2 Li B  D2 NP NP NP 
002055 Ri F  Bi U  Fi R  NP NP NP 
002056 Bi D  B2 Li D2 NP NP NP NP 
002057 B  Li B2 D  Li D  NP NP NP 
002058 Bi R  Di Li Ri Bi D  NP NP 
002059 B  Li B  D2 Li NP NP NP NP 
002060 U2 F  Ri Fi U2 B  L2 NP NP 
002061 U2 F  Ri Fi U2 L2 NP NP NP 
002062 B  L2 Di L  D2 B  Li NP NP 
002063 R  D2 R2 Bi R  NP NP NP NP 
002064 Ri B  Li R2 Di Ri Di NP NP 
002065 B  Li D2 B  Li NP NP NP NP 
002066 Ri U2 B  L2 R2 F  Ri NP NP 
002067 B  Li Bi D2 B2 Li NP NP NP 
002068 F  B2 Li Fi Ri B  R  NP NP 
002069 R  D  L  D  R2 Bi R  NP NP 
002070 U  R  Di Bi Ri Ui L2 Di NP 
002071 B2 L  Ri B2 L2 Bi R  NP NP 
002072 F  U2 F  Ri U2 F2 L2 NP NP 
002073 B  Li Ri Bi R  D2 NP NP NP 
002074 B  Ui Li U  D  B  D  NP NP 
002075 B2 L  Bi Li D2 Li B  NP NP 
002076 U  B2 Ui Li Ri Bi R  NP NP 
002077 B2 L  Bi Li D2 Li NP NP NP 
002078 U2 F  Ri Fi U2 Bi L2 NP NP 
002079 B  Li D  Li B2 D  NP NP NP 
002080 B  Li Bi D  L  Bi D  NP NP 
002081 R  D  Li R2 Bi Li R  NP NP 
002082 B  Li D  B2 L  D  NP NP NP 
002083 B2 D  B  L  D2 B  Di NP NP 
002084 U2 F  Ri U  Fi U  L  NP NP 
002085 Bi D  B2 Li B2 D2 L  NP NP 
002086 B  Li D  B2 D  NP NP NP NP 
002087 B  Li Bi D  L2 Bi D  NP NP 
002088 B  L2 B2 Di L  D2 B2 NP NP 
002089 B  Ui Li U  D2 Li Bi NP NP 
002090 Bi Di B2 Li D2 B  NP NP NP 
002091 B  Ui Li U  D2 Li B2 NP NP 
002092 Bi Di B2 Li D2 NP NP NP NP 
002093 B  Li D  L2 B2 D  NP NP NP 
002094 B  L2 B2 Di L  D2 NP NP NP 
002095 R  D  L2 R2 Bi Li R  NP NP 
002096 B  Li D  B2 L2 D  NP NP NP 
002097 B  Ui Li U  D2 Li NP NP NP 
002098 Bi D  B2 Li D2 L  NP NP NP 
002099 B  Li Bi D  Bi D  NP NP NP 
002100 B  Li D  B  Li D  NP NP NP 
002101 Ri U  Ri Ui R2 Bi L2 Di NP 
002102 R  D  L2 D2 R2 Bi R  NP NP 
002103 U  B  Ui B  Li B  D2 NP NP 
002104 B  Ui Li U  B  D2 L2 NP NP 
002105 Ri Bi R2 Di Ri Bi Li NP NP 
002106 R  Di R2 Bi R  NP NP NP NP 
002107 U2 R  F  Di Ri U2 NP NP NP 
002108 B  Li D  L2 B  Li D  NP NP 
002109 Ri U  R2 F2 R2 Ui Bi R  NP 
002110 Ri Bi R2 Di Ri NP NP NP NP 
002111 R  D  L  D2 R2 Bi R  NP NP 
002112 Ri Bi R2 Di Ri Bi NP NP NP 
002113 B  L2 B2 D  L  B  D2 NP NP 
002114 Ri B  R2 Di R2 B2 R  NP NP 
002115 Bi U  Di Fi R  F  Ui NP NP 
002116 B  Ui Li U  B  D2 NP NP NP 
002117 R2 Bi D  Ri Di B  R2 NP NP 
002118 Ri Bi R2 Di Ri B  NP NP NP 
002119 B2 L  Bi L2 Di L  D2 NP NP 
002120 R  D  Li D2 R2 Bi R  NP NP 
002121 U2 R2 F2 Ri Fi Ri U2 NP NP 
002122 B  Li B2 D2 B  L  NP NP NP 
002123 B  L2 D2 B2 L  D2 NP NP NP 
002124 B  L2 Di L  B2 D2 NP NP NP 
002125 Ri B  Li R  Bi D2 NP NP NP 
002126 B  Li B2 D  B2 D  NP NP NP 
002127 Bi D2 Bi L  Ri B  R  NP NP 
002128 B  L  B2 L2 D2 NP NP NP NP 
002129 B  L2 Bi D2 L  Bi D2 NP NP 
002130 B  Li B2 D2 Bi NP NP NP NP 
002131 Fi Ri Bi Ri Fi R2 F2 NP NP 
002132 B2 L  Bi Li B  D2 B2 NP NP 
002133 B  Li B2 D  Bi D  NP NP NP 
002134 B  L2 D  L  B2 D2 NP NP NP 
002135 B  Li B2 D2 B2 NP NP NP NP 
002136 B  Li B2 D2 B  NP NP NP NP 
002137 B  L2 D2 L  B2 D2 NP NP NP 
002138 B2 L  Bi Li B  D2 NP NP NP 
002139 U  Bi Ui D2 Ri Bi R  NP NP 
002140 B  L2 Di B2 L  D2 NP NP NP 
002141 B  Li B2 D2 NP NP NP NP NP 
002142 Bi R  Di Li Ri D  Bi NP NP 
002143 Ri Bi R  B2 D  Li Di NP NP 
002144 Ri Bi R2 D  L2 Ri NP NP NP 
002145 B  Li B  Di Li Di NP NP NP 
002146 Ri Bi R2 D  Li Ri NP NP NP 
002147 Bi D  B  D2 Ri Bi R  NP NP 
002148 R  Di R2 B  Li R  D2 NP NP 
002149 U2 R  F  D  Ri U2 NP NP NP 
002150 B  Ui Li U  B2 D2 Bi NP NP 
002151 Ri B  Ui B2 L  U  R  NP NP 
002152 U2 F  Ri U  Fi U  L2 B  NP 
002153 B  L2 B2 D  L  D2 B  NP NP 
002154 U  Fi Ri F  Ui D  B2 NP NP 
002155 B  Li B  Di Li Di L  NP NP 
002156 Ri Bi R2 D  Ri NP NP NP NP 
002157 U  R  D2 Bi Ri Ui Di NP NP 
002158 B  Ui Li U  D2 B  NP NP NP 
002159 Ri B  Ui B2 L2 U  R  NP NP 
002160 R  Di Ri B  Li D2 NP NP NP 
002161 U2 R  Fi D  F2 Ri U2 NP NP 
002162 U2 F  R  F  D  R2 F2 U2 NP 
002163 B  Li D  Li D  B2 NP NP NP 
002164 B  Li B  D2 B  Li NP NP NP 
002165 Bi D2 B2 Li D2 NP NP NP NP 
002166 B  Li B  D2 B  NP NP NP NP 
002167 Ri Bi R  B  L2 B2 NP NP NP 
002168 B2 L  Bi Li Bi D2 B2 NP NP 
002169 B2 L  Bi Li B2 D2 Bi NP NP 
002170 B  Li D2 B2 NP NP NP NP NP 
002171 Ri B  Li R  B2 D2 B  NP NP 
002172 B  L2 Di L  D2 B2 NP NP NP 
002173 Ri Bi R  Bi NP NP NP NP NP 
002174 B  Li D  L2 D  B2 NP NP NP 
002175 U  B2 Ui Ri Bi R  B2 NP NP 
002176 B  Li B  D2 B  L  NP NP NP 
002177 Bi D2 B2 Li D2 L2 NP NP NP 
002178 Bi U2 F  R  Fi U2 NP NP NP 
002179 Bi D2 Li B2 Li D2 NP NP NP 
002180 B2 L  Bi Li D2 B  NP NP NP 
002181 Bi R  D  Ri Di NP NP NP NP 
002182 B  L2 D  L  D2 B2 NP NP NP 
002183 B  Li Bi D2 Bi NP NP NP NP 
002184 B  Li D  Li B  D  NP NP NP 
002185 B  Li Bi D2 L  B2 NP NP NP 
002186 Ri Bi R  B  L  B  NP NP NP 
002187 B  Li B  D2 NP NP NP NP NP 
002188 Ri Bi R  B  L2 B  NP NP NP 
002189 B2 L  Bi L  Bi L2 D2 NP NP 
002190 Ri B  R  Bi Ri Bi R  NP NP 
002191 B  Li D2 B  NP NP NP NP NP 
002192 Ri B  Li R  B2 D2 NP NP NP 
002193 B  Li Bi D2 B2 NP NP NP NP 
002194 Bi R  D  Ri Di Bi NP NP NP 
002195 B  L2 D  L  D2 B  NP NP NP 
002196 Ri Bi R  B2 NP NP NP NP NP 
002197 U2 F  Ri Fi U2 Li NP NP NP 
002198 B  L2 Di L  D2 B  NP NP NP 
002199 B  L  B2 L2 Bi D2 NP NP NP 
002200 U  B2 Ui Ri Bi R  B  NP NP 
002201 B  L  B  L2 D  L2 D  NP NP 
002202 U  Bi Ui Ri Bi R  NP NP NP 
002203 B2 L  Bi Li D2 NP NP NP NP 
002204 B  L  Bi L2 B2 D2 NP NP NP 
002205 U2 F  Ri U  Fi L2 U  NP NP 
002206 U2 F  Ri Fi Ui B  Ui NP NP 
002207 R  D  L2 R2 Bi R  NP NP NP 
002208 B  Ui L  D2 L2 U  D2 NP NP 
002209 R  D  Li R2 Bi R  NP NP NP 
002210 B  Ui L2 U  B  L  D2 NP NP 
002211 Bi D  B2 Li B2 D2 L2 NP NP 
002212 U  B  Ui B  Li D2 NP NP NP 
002213 B  Ui Li U  B2 D2 B2 NP NP 
002214 Bi D2 B2 Di Li D2 L2 NP NP 
002215 R  Di Ri B  Li D2 Bi NP NP 
002216 R  D  L  R2 Bi R  NP NP NP 
002217 U2 F  Ri U  Fi U  L2 NP NP 
002218 B  L2 B2 D  L  D2 NP NP NP 
002219 Bi R  Di L2 Ri B2 D  NP NP 
002220 R  D  R2 Bi R  NP NP NP NP 
002221 U  Fi Ri F  Ui B  D  NP NP 
002222 B2 L  U  Ri B  R  Ui NP NP 
002223 B  Ui Li U  D2 NP NP NP NP 
002224 Bi D  B2 Li D2 L2 NP NP NP 
002225 B  Li B2 D  L  D  NP NP NP 
002226 Bi D  B2 Li Bi D2 Li NP NP 
002227 R  D  R2 Bi L  R  NP NP NP 
002228 F2 Bi U  R  B2 Ui F2 NP NP 
002229 Bi U  Fi R  F  B2 Ui NP NP 
002230 Ui Li U2 D2 B  Ui Di NP NP 
002231 B  Ui L  U  B2 Di Li NP NP 
002232 F2 B  Ri Ui B2 R  F2 NP NP 
002233 Ui Li U2 B  Ui Di NP NP NP 
002234 B  Li B2 D  B  L2 D  NP NP 
002235 R2 Fi U  Ri F  Ri D  NP NP 
002236 U  B  Ui Ri Bi R  Bi NP NP 
002237 R  D  L  R2 Bi L  R  NP NP 
002238 U  B  Ui Ri Bi R  B2 NP NP 
002239 Ui Li U2 D  B  Ui Di NP NP 
002240 R  D  Li R2 Bi L  R  NP NP 
002241 U  B2 R  Bi Ri Ui Di NP NP 
002242 U  B  Ui Ri Bi R  B  NP NP 
002243 U2 F  Ri U  Fi U  Li NP NP 
002244 U  B  Ui Ri Bi R  NP NP NP 
002245 Bi D  B2 Li D2 Li NP NP NP 
002246 B  Li B2 D  L2 D  NP NP NP 
002247 F2 Ri B  U2 B2 R  F2 NP NP 
002248 B  L  B  L2 B  D2 Li NP NP 
002249 F  U2 F  Ri U2 F2 NP NP NP 
002250 B  L2 B  L  B  D2 NP NP NP 
002251 B  L2 B  D2 L  D2 NP NP NP 
002252 B  L2 Di B  L  D2 NP NP NP 
002253 B2 L2 Bi Li B  D2 NP NP NP 
002254 B  L2 B  L  D2 NP NP NP NP 
002255 R  F  R2 B  U2 B2 R  NP NP 
002256 U2 F  Ri Fi U2 B2 NP NP NP 
002257 Ri F  Bi U2 Fi R  Bi NP NP 
002258 Ri Bi R  B2 L  B2 NP NP NP 
002259 U2 F  Ri Fi U  L2 U  NP NP 
002260 B  Li B  D2 L  NP NP NP NP 
002261 U2 F  Ri Fi U2 B  NP NP NP 
002262 U2 F  Ri Fi U2 NP NP NP NP 
002263 Ri F  Bi U2 Fi R  B  NP NP 
002264 Ri Bi R  B2 L  NP NP NP NP 
002265 Ri F  Bi U2 Fi R  NP NP NP 
002266 Ri Bi R  B2 L  Bi NP NP NP 
002267 U2 F  Ri Fi U2 Bi NP NP NP 
002268 B  L2 Di Bi L  D2 NP NP NP 
002269 B  Li Bi D2 L  NP NP NP NP 
002270 Ri Bi R  B  L  Bi NP NP NP 
002271 B  Li B  D2 B2 NP NP NP NP 
002272 Ri Bi R  B  L2 Bi NP NP NP 
002273 U2 F2 R  Fi Ri Fi U2 NP NP 
002274 B2 L  Bi Li B2 D2 NP NP NP 
002275 B  Li D2 Bi NP NP NP NP NP 
002276 B  L2 D2 L  Bi D2 NP NP NP 
002277 B  L  B2 L2 B2 D2 Bi NP NP 
002278 B  Li Bi Di Li Di NP NP NP 
002279 R2 F  L2 Fi R  Bi R  NP NP 
002280 B  Li Bi Di L2 Di NP NP NP 
002281 B  Li Bi D2 Li NP NP NP NP 
002282 Ui L  U  Fi D  F  Li NP NP 
002283 B  Li Bi D2 NP NP NP NP NP 
002284 Ui L  U  Fi D  F  NP NP NP 
002285 B  L2 D  L  D2 Bi NP NP NP 
002286 Ri Bi R  NP NP NP NP NP NP 
002287 B  Li D  L2 Bi D  NP NP NP 
002288 B  L2 Di L  Bi D2 NP NP NP 
002289 Bi R  Di Li Ri D  NP NP NP 
002290 R  D  Ri B  Li D2 Li NP NP 
002291 R  D  L2 R2 Bi R  B2 NP NP 
002292 R  D  Ri B  Li D2 NP NP NP 
002293 R  D  Li R2 Bi R  B2 NP NP 
002294 B  Ui Li U  D2 B2 Li NP NP 
002295 B  U  B2 D  Fi R  F  Ui NP 
002296 Bi R  Di Ri D  NP NP NP NP 
002297 B  Ui Li U  B2 D2 NP NP NP 
002298 R  D  R2 Bi R  B2 NP NP NP 
002299 U  Fi Ri F  Ui D  Bi NP NP 
002300 R  D  L  Ri B  Li D2 NP NP 
002301 B  Ui Li U  D2 B2 NP NP NP 
002302 U  Fi Ri F  Ui Bi D  NP NP 
002303 B  Li B2 D  L  D  B2 NP NP 
002304 R  D  Ri B  Li D2 L2 NP NP 
002305 R  D  L2 Ri B  Li D2 NP NP 
002306 Bi R  Di L2 Ri D  NP NP NP 
002307 B  Ui Li U2 B2 Ui D2 NP NP 
002308 B  U2 Ri Ui B2 R  Ui NP NP 
002309 U  B  Ui B  Li B2 D2 NP NP 
002310 B  Li D  Li D  NP NP NP NP 
002311 B  L2 D  L  D2 L2 NP NP NP 
002312 Ri Bi R  B  L  NP NP NP NP 
002313 B  Li Fi D2 F  NP NP NP NP 
002314 Ri Bi R  B  L2 NP NP NP NP 
002315 B2 L  Bi Li Bi D2 NP NP NP 
002316 R2 Fi L2 R  Bi U2 R  NP NP 
002317 B  Li D2 NP NP NP NP NP NP 
002318 Ri B  Li R  B2 D2 Bi NP NP 
002319 Bi U2 F  R  Fi U2 B2 NP NP 
002320 U  Bi Ui Ri Bi R  Bi NP NP 
002321 B2 L  Bi Li D2 Bi NP NP NP 
002322 B  Li D  L2 D  Li NP NP NP 
002323 B  L2 D  L  D2 NP NP NP NP 
002324 Ri Bi R  B  Li NP NP NP NP 
002325 B  L2 Di L  D2 NP NP NP NP 
002326 Ri Bi R  B  NP NP NP NP NP 
002327 B  Li D  L2 D  NP NP NP NP 
002328 U  B2 Ui Ri Bi R  NP NP NP 
002329 R  D2 L  Di R2 Bi R  NP NP 
002330 B  L  B2 L2 B2 D2 NP NP NP 
002331 Fi U  Ri Ui F  Li D  NP NP 
002332 F2 U  Ri Ui F  D  F  Li NP 
002333 R  D  L2 R2 Bi R  Bi NP NP 
002334 F2 U  Ri Ui F  D  F  NP NP 
002335 B  Ui Li U  Bi D2 NP NP NP 
002336 Bi D  B2 L  Bi L2 D2 NP NP 
002337 R2 U  R  Bi Ui R  Di NP NP 
002338 Fi U  Ri Ui F  D  NP NP NP 
002339 B  Ui Li U  B2 D2 B  NP NP 
002340 B  Li B2 D  L  D  Bi NP NP 
002341 F2 Ri Bi Ui R  F2 NP NP NP 
002342 Bi D  B2 Li D2 L2 Bi NP NP 
002343 R  Di Ri B  Li D2 B2 NP NP 
002344 U2 R  Fi Di F2 Ri U2 NP NP 
002345 B  Ui Li U  Bi D2 L  NP NP 
002346 U  B  U  F  Ri Fi U2 NP NP 
002347 B  Ui Li U  Bi D2 L2 NP NP 
002348 Fi U  Ri Ui F  L2 D  NP NP 
002349 U  Fi Ri F  Ui D  NP NP NP 
002350 U2 R  D2 Fi D  F2 Ri U2 NP 
002351 R  D  R2 Bi R  Bi NP NP NP 
002352 B2 L2 Di NP NP NP NP NP NP 
002353 B2 Di L  B2 L  NP NP NP NP 
002354 B2 R  D2 Ri D  L2 NP NP NP 
002355 Ui L2 U  D2 B2 L2 NP NP NP 
002356 B2 Di Li Bi Li NP NP NP NP 
002357 B2 Ui L2 U  D2 B  D  NP NP 
002358 B2 L  D  B  D2 L  NP NP NP 
002359 F2 U  R  U  R  U2 F2 NP NP 
002360 F2 U  R2 B2 Ui F2 NP NP NP 
002361 B2 Di L2 NP NP NP NP NP NP 
002362 B2 Di L  Bi L  B2 NP NP NP 
002363 B2 L  Di B2 L  NP NP NP NP 
002364 B2 L  D  B2 D2 L  NP NP NP 
002365 B2 Di Li B2 Li NP NP NP NP 
002366 B2 Di L2 Bi NP NP NP NP NP 
002367 B2 Di L2 B2 NP NP NP NP NP 
002368 B2 Di L  Bi L  NP NP NP NP 
002369 F2 U  R2 B  Ui F2 NP NP NP 
002370 U  L2 F2 D  R2 F2 NP NP NP 
002371 B2 L  Di Bi L  NP NP NP NP 
002372 B2 Di L2 B  NP NP NP NP NP 
002373 Ui L2 U2 D2 B  Ui L  NP NP 
002374 U  B  Ui B2 Di B2 L  NP NP 
002375 U  B  U2 L  U  L  D2 NP NP 
002376 B2 Li Di Bi L2 NP NP NP NP 
002377 B2 Li Fi D  F  D2 NP NP NP 
002378 Bi D  Li Bi D2 Bi D  NP NP 
002379 Fi R2 Fi U  R2 F2 L  NP NP 
002380 Bi D2 B2 Di B  Li Di NP NP 
002381 Bi Di Bi D2 Li D  NP NP NP 
002382 B2 D2 B  D  Li NP NP NP NP 
002383 Bi D  Li Bi Di B  NP NP NP 
002384 R2 Fi U  F  L  R2 NP NP NP 
002385 Bi D  Li Bi Di NP NP NP NP 
002386 B2 D2 B  D  B2 Li NP NP NP 
002387 B2 Li Di L2 Bi L2 NP NP NP 
002388 B2 D2 B  D  Li B2 NP NP NP 
002389 B2 U  Di Bi Ui L  NP NP NP 
002390 U  B  Ui B2 L  Di NP NP NP 
002391 B2 Li Di L  Bi L2 NP NP NP 
002392 B2 Di Bi Ui L  U  NP NP NP 
002393 B2 D2 B  D  Li B  NP NP NP 
002394 B2 L2 Ui Di L  U  NP NP NP 
002395 B2 L  Di B  L2 NP NP NP NP 
002396 B2 Di L  Bi L2 NP NP NP NP 
002397 B2 Di L  B2 L2 NP NP NP NP 
002398 B2 R  D2 Ri D  Li NP NP NP 
002399 B2 L  Di L2 NP NP NP NP NP 
002400 B2 L  D  B  D2 L2 NP NP NP 
002401 R  D2 L2 Ri B2 Di L2 NP NP 
002402 F2 U  R2 B2 Ui F2 L  NP NP 
002403 B2 Di Li NP NP NP NP NP NP 
002404 R  Di Ri B2 Di B2 NP NP NP 
002405 B2 L  Di B2 L2 NP NP NP NP 
002406 R  Di Ri B2 Di B  NP NP NP 
002407 Ui L2 U  D2 B2 Li NP NP NP 
002408 B2 Di Li Bi NP NP NP NP NP 
002409 B2 Di Li B2 NP NP NP NP NP 
002410 R  Di Ri B2 Di NP NP NP NP 
002411 B2 L  D  B2 D2 L2 NP NP NP 
002412 R  Di Ri B2 Di Bi NP NP NP 
002413 B2 L  Di Bi L2 NP NP NP NP 
002414 B2 Di Li B  NP NP NP NP NP 
002415 B2 D2 B  D2 L2 Di NP NP NP 
002416 Bi D2 L  Bi L  Di NP NP NP 
002417 Bi D2 Li Bi Di NP NP NP NP 
002418 U  B  Ui B2 Di B2 L2 NP NP 
002419 U  B  Ui B2 Li Di Li NP NP 
002420 Ui L2 U2 D2 B  Ui L2 NP NP 
002421 Bi D2 B  L2 B2 Di NP NP NP 
002422 Bi Ui D2 L2 U  Bi Di NP NP 
002423 B2 L  D2 B  Li B  D  NP NP 
002424 B2 D2 B  D  NP NP NP NP NP 
002425 Bi D2 L  Bi Li Di NP NP NP 
002426 Bi D2 Bi L  Di NP NP NP NP 
002427 B2 D2 Ri B  R  D  NP NP NP 
002428 Bi D2 Bi Di NP NP NP NP NP 
002429 B2 D2 B  D  Bi NP NP NP NP 
002430 B2 D2 B  D  B2 NP NP NP NP 
002431 Bi D2 Bi L2 Di NP NP NP NP 
002432 Bi D2 Bi Di Bi NP NP NP NP 
002433 Bi D2 L2 Bi Di NP NP NP NP 
002434 Bi D2 Bi Di B2 NP NP NP NP 
002435 B2 D2 B  D  B  NP NP NP NP 
002436 B2 D2 Li D2 L2 Di NP NP NP 
002437 B2 L  D2 B  L2 D  NP NP NP 
002438 B2 D2 Li D  Bi L2 NP NP NP 
002439 B2 D2 Li D  B2 L2 NP NP NP 
002440 B2 D2 Li D  Bi Li NP NP NP 
002441 R  D  Ri Di B2 Di L2 NP NP 
002442 R  D  L  Ri Di B2 Di NP NP 
002443 B2 L  D2 L2 D  NP NP NP NP 
002444 R  Di Ri D  L  B2 Di NP NP 
002445 B2 D2 Li D  NP NP NP NP NP 
002446 B2 Li B  D2 Bi Di NP NP NP 
002447 R2 Fi U  F2 L  Fi R2 NP NP 
002448 R2 Fi Ri F  Ri B2 Di NP NP 
002449 B2 D2 Li D  B2 Li NP NP NP 
002450 B2 D2 Li D  Bi NP NP NP NP 
002451 B2 D2 Li D  B2 NP NP NP NP 
002452 B2 D2 Li D  Bi L  NP NP NP 
002453 R  D  Ri Di B2 Di NP NP NP 
002454 U  B2 Ui Ri B2 R  Di NP NP 
002455 R  Di Ri D  B2 Di NP NP NP 
002456 B2 D2 Li D  B  NP NP NP NP 
002457 U  R2 B  U2 F  U  NP NP NP 
002458 B2 D  B  D2 B2 L  NP NP NP 
002459 Bi Di Bi Di Li NP NP NP NP 
002460 B2 D  B  D2 B2 L2 NP NP NP 
002461 Bi Di Bi Di NP NP NP NP NP 
002462 U  Fi R2 F  Ui B2 Li NP NP 
002463 Bi D2 B  L2 D  B2 Di NP NP 
002464 Bi D  B  D2 L2 B2 Di NP NP 
002465 Ui Li U  Di Li Bi D2 NP NP 
002466 B2 D  B  D2 NP NP NP NP NP 
002467 U  Fi R2 F  Ui Bi NP NP NP 
002468 B  U  Bi Ui B2 L2 D2 NP NP 
002469 U  Fi R2 F  Ui B2 NP NP NP 
002470 B2 D  B  D2 B2 Li NP NP NP 
002471 B2 D  B  D2 Bi NP NP NP NP 
002472 B2 D  B  D2 B2 NP NP NP NP 
002473 Bi Di Bi Di L2 NP NP NP NP 
002474 B2 D  B  Di L  Di NP NP NP 
002475 U  Fi R2 F  Ui NP NP NP NP 
002476 Bi Di Bi D2 B2 D  NP NP NP 
002477 B2 D  B  D2 B  NP NP NP NP 
002478 B2 Li Fi Di F  NP NP NP NP 
002479 Fi L  B2 Li F  Di NP NP NP 
002480 B2 Li Di L2 NP NP NP NP NP 
002481 B2 Li D2 B2 Li D  NP NP NP 
002482 B2 Li Di Li NP NP NP NP NP 
002483 U2 F2 R  D  F2 U2 NP NP NP 
002484 F  B2 Li F2 Di F  NP NP NP 
002485 B2 Li D2 B2 L2 D  NP NP NP 
002486 B2 Li D2 Bi Li D  NP NP NP 
002487 U  B2 Ui Li B2 Di NP NP NP 
002488 B2 Li Di L2 B2 Li B2 NP NP 
002489 R  Di Ri Bi Di Bi Di NP NP 
002490 B2 Li Fi Di F  L2 NP NP NP 
002491 Fi L  B2 Li F  Di L2 NP NP 
002492 B2 Li Di NP NP NP NP NP NP 
002493 B2 Ui Di L  U  B2 NP NP NP 
002494 B2 Li Di L  NP NP NP NP NP 
002495 B2 Li D2 B2 D  NP NP NP NP 
002496 U  Ri Di R2 D  R  Ui NP NP 
002497 B2 Li D2 B  D  NP NP NP NP 
002498 B2 D2 B  D  L  B  NP NP NP 
002499 Bi D  Bi Di L  NP NP NP NP 
002500 B2 Di B2 L  Bi NP NP NP NP 
002501 B2 Di Bi L2 B2 NP NP NP NP 
002502 B2 Di B2 L2 Bi NP NP NP NP 
002503 B2 Di Bi Li B2 NP NP NP NP 
002504 Bi D  Bi Di L2 NP NP NP NP 
002505 Bi D  Bi D  B  D2 NP NP NP 
002506 B2 Di B  D2 B2 D2 NP NP NP 
002507 F2 U  B  R2 B2 Ui F2 NP NP 
002508 U  B  Ui L2 B2 Di NP NP NP 
002509 Ri B2 R  Di Bi NP NP NP NP 
002510 B2 Di L  B2 Li B  NP NP NP 
002511 Bi D  Bi Di Li NP NP NP NP 
002512 B2 D  Bi D2 B2 Li NP NP NP 
002513 Ui L2 U  D2 Bi NP NP NP NP 
002514 B2 D  Bi D2 B2 NP NP NP NP 
002515 Ui L2 U  D2 Bi L  NP NP NP 
002516 Bi D  Bi Di NP NP NP NP NP 
002517 U  Fi Bi R2 F  Ui NP NP NP 
002518 B2 L  Di B2 Li B  NP NP NP 
002519 B2 Di B  NP NP NP NP NP NP 
002520 U2 R2 Ui R2 B2 Ui NP NP NP 
002521 B2 Di Li B2 L  NP NP NP NP 
002522 Fi B2 D  F  D2 NP NP NP NP 
002523 B2 L  D2 Li D  NP NP NP NP 
002524 B2 Di L  Bi Li NP NP NP NP 
002525 B2 Li F  L  Fi Di NP NP NP 
002526 B2 L  D  B  D2 Li NP NP NP 
002527 Fi B2 Di R2 Fi R2 F2 NP NP 
002528 Ri B2 R  D  B2 D2 NP NP NP 
002529 B2 Di NP NP NP NP NP NP NP 
002530 U  Fi Bi R2 F  Ui Bi NP NP 
002531 B2 L  Di B2 Li NP NP NP NP 
002532 B2 L  Di Li NP NP NP NP NP 
002533 B2 Di L  B2 Li NP NP NP NP 
002534 B2 R  D2 Ri D  NP NP NP NP 
002535 Ui L2 U  D2 B2 NP NP NP NP 
002536 B2 Di Li Bi L  NP NP NP NP 
002537 U  F  R2 Fi U2 B  U  NP NP 
002538 U  Fi B2 R2 F  Ui NP NP NP 
002539 B2 L  Di Bi Li NP NP NP NP 
002540 B2 D  Bi D2 B  NP NP NP NP 
002541 Bi D  Bi L  Di NP NP NP NP 
002542 B2 D2 B  D  B2 L  NP NP NP 
002543 B2 Li Di L2 Bi NP NP NP NP 
002544 R2 Fi U  F  R2 Bi Li NP NP 
002545 B2 Li Di Li Bi NP NP NP NP 
002546 U  B  Ui B2 L  Di L2 NP NP 
002547 Fi R2 Fi U  R2 F2 Li NP NP 
002548 Ri B  Ui B  U  R  Di NP NP 
002549 B2 Li Bi Di B  Di B2 NP NP 
002550 B2 D2 B  D  L  NP NP NP NP 
002551 B2 Li Di L2 B  Li B2 NP NP 
002552 R2 Fi U  F  Li R2 NP NP NP 
002553 Ui L2 U2 D2 B  Ui Li NP NP 
002554 U  B  Ui B2 Di B2 Li NP NP 
002555 U  B  Ui B2 Li Di NP NP NP 
002556 B2 Li Di Bi NP NP NP NP NP 
002557 B2 D2 B  D  Bi L  NP NP NP 
002558 B2 Di L  U  B  Ui NP NP NP 
002559 B2 Li Di L  Bi NP NP NP NP 
002560 B2 Li D2 B2 D  Bi NP NP NP 
002561 B2 Ui Di L  U  B  NP NP NP 
002562 U  B  Ui L2 B2 L2 Di NP NP 
002563 B2 Li Di Bi L  NP NP NP NP 
002564 B2 D2 B  D  Bi L2 NP NP NP 
002565 B2 D2 B  D  B2 L2 NP NP NP 
002566 B2 Li Di L2 Bi L  NP NP NP 
002567 Bi D  Li Bi Di Li NP NP NP 
002568 Fi R2 Fi U  R2 F2 NP NP NP 
002569 Bi D  Bi L  D2 L  D  NP NP 
002570 F2 U  Bi R2 B2 Ui F2 NP NP 
002571 U  B  Ui B2 Di NP NP NP NP 
002572 U  Fi B  R2 F  Ui Bi NP NP 
002573 R2 Fi U  F  R2 NP NP NP NP 
002574 U  Fi B  R2 F  Ui B2 NP NP 
002575 R2 Fi U  F  R2 Bi NP NP NP 
002576 B2 U  Di Bi Ui NP NP NP NP 
002577 U  B  Ui B2 Di B2 NP NP NP 
002578 U  Fi B  R2 F  Ui B  NP NP 
002579 U2 R2 Ui R2 B  Ui NP NP NP 
002580 U  Fi B  R2 F  Ui NP NP NP 
002581 R2 Fi U  F  R2 B  NP NP NP 
002582 U  B  Ui B2 Di B  NP NP NP 
002583 U  B2 Ui Li B2 L2 Di NP NP 
002584 Ui L2 U  D2 B2 L  NP NP NP 
002585 B2 Di Li Bi L2 NP NP NP NP 
002586 B2 Di Li B2 L2 NP NP NP NP 
002587 B2 L  D2 B  D  NP NP NP NP 
002588 B2 L  D  B2 D2 NP NP NP NP 
002589 B2 L  D  B  D2 NP NP NP NP 
002590 R  D2 L2 Ri B2 Di NP NP NP 
002591 Ui L  U  B2 L  Bi D2 NP NP 
002592 B2 Di L  NP NP NP NP NP NP 
002593 B2 Ui L2 U  Li Di NP NP NP 
002594 B2 L  Di B2 NP NP NP NP NP 
002595 F2 U  R2 B  Ui F2 Li NP NP 
002596 B2 L  Di B  NP NP NP NP NP 
002597 B2 Di L  Bi NP NP NP NP NP 
002598 B2 Di L  B2 NP NP NP NP NP 
002599 B2 R  D2 Ri D  L  NP NP NP 
002600 B2 L  Di NP NP NP NP NP NP 
002601 U  L2 F2 D  R2 F2 Li NP NP 
002602 B2 L  Di Bi NP NP NP NP NP 
002603 B2 Di L  B  NP NP NP NP NP 
002604 B2 U  Di B2 Ui NP NP NP NP 
002605 B2 Di B2 L  NP NP NP NP NP 
002606 Ui L  U  L  D2 NP NP NP NP 
002607 B2 Di B2 L2 NP NP NP NP NP 
002608 B2 Di Bi Li Bi NP NP NP NP 
002609 B2 U  Di B2 Ui L  NP NP NP 
002610 R2 F  L2 U  Fi R2 NP NP NP 
002611 B2 Di F  B2 L2 Fi NP NP NP 
002612 B2 Di B2 Di L2 D  NP NP NP 
002613 Ui L2 U  D2 NP NP NP NP NP 
002614 B2 Di Li Bi L  B2 NP NP NP 
002615 Ui L  U  L  Di L2 Di NP NP 
002616 B2 U  Di B2 Ui L2 NP NP NP 
002617 B2 Di B2 Li NP NP NP NP NP 
002618 B2 D  Bi D2 Bi NP NP NP NP 
002619 B2 Di B2 NP NP NP NP NP NP 
002620 Ui L  U  L  D2 Li NP NP NP 
002621 U2 Ri F2 R  U2 D  NP NP NP 
002622 Ri B2 R  Di NP NP NP NP NP 
002623 B2 Di L  B2 Li B2 NP NP NP 
002624 Ui L2 Di L  U  Di NP NP NP 
002625 B2 Li Fi Di F  B  NP NP NP 
002626 Fi L  B2 Li F  Di B  NP NP 
002627 B2 Li Di L2 B  NP NP NP NP 
002628 B2 Ui L  U  D  Bi D2 NP NP 
002629 B2 Li Di Li B  NP NP NP NP 
002630 B2 Li Di L  B  Li NP NP NP 
002631 R  D  L  Ri B2 Di Bi NP NP 
002632 R2 F2 Li U  F2 R2 Bi NP NP 
002633 B2 Li Bi Di B  Di NP NP NP 
002634 B2 Li Di B  NP NP NP NP NP 
002635 B2 Li Fi Di F  L2 B  NP NP 
002636 B2 Di L  U  B  Ui B2 NP NP 
002637 B2 Li Di L  B  NP NP NP NP 
002638 B2 Li D2 B2 D  B  NP NP NP 
002639 B2 Ui Di L  U  Bi NP NP NP 
002640 B2 D2 B  D  L  B2 NP NP NP 
002641 B2 Li Di L2 B  Li NP NP NP 
002642 R2 U  Fi R  Ui R  NP NP NP 
002643 B2 Li Di L2 B2 Li Bi NP NP 
002644 B2 L  Di Bi U  Bi Ui NP NP 
002645 U  B  Ui B2 Li Di B2 NP NP 
002646 U  Bi Ui B2 L2 Di NP NP NP 
002647 B2 Di B2 L  B  NP NP NP NP 
002648 B2 Di Bi L2 NP NP NP NP NP 
002649 B2 Di B2 L2 B  NP NP NP NP 
002650 B2 Di Bi Li NP NP NP NP NP 
002651 B  U  Bi Ui L2 D2 NP NP NP 
002652 B  L2 D  Fi D  F  NP NP NP 
002653 B2 Di B2 D2 B  D2 NP NP NP 
002654 B2 Di F  Bi Li Fi NP NP NP 
002655 B2 D  Bi D2 NP NP NP NP NP 
002656 B2 Di Bi R  D2 Ri NP NP NP 
002657 B2 Di B2 Li B  NP NP NP NP 
002658 B2 L  B  Li Bi Di NP NP NP 
002659 Ri B  R  B  L2 Di NP NP NP 
002660 B2 Di Bi NP NP NP NP NP NP 
002661 B2 R  D2 Ri D  Bi NP NP NP 
002662 B2 Di Bi L  NP NP NP NP NP 
002663 U  Bi Ui B2 L  Di NP NP NP 
002664 B2 Di Li Bi L  Bi NP NP NP 
002665 U2 R  F2 Ri U2 B  D  NP NP 
002666 Ui L2 U  D2 B  NP NP NP NP 
002667 B2 L2 Ui Li U  Di NP NP NP 
002668 Fi L  B2 Li F  Di B2 NP NP 
002669 B2 Li Di L2 B2 NP NP NP NP 
002670 R  D  Li Ri B2 Di Li NP NP 
002671 B2 Li Di Li B2 NP NP NP NP 
002672 U2 F2 R  D  F2 U2 B2 NP NP 
002673 R  D  L  Ri B2 Di NP NP NP 
002674 R2 F2 Li U  F2 R2 NP NP NP 
002675 Ri Ui L  R2 Di F2 Ri NP NP 
002676 B2 Ui Di L  U  NP NP NP NP 
002677 R2 U  R  Ui R  NP NP NP NP 
002678 B2 Li D2 B2 D  B2 NP NP NP 
002679 Ri Ui R2 Di L  F2 Ri NP NP 
002680 R  D  Li Ri B2 Di NP NP NP 
002681 B2 Li Di L2 B2 L2 NP NP NP 
002682 U  Ri D  B2 U  Ri U2 NP NP 
002683 B2 Li Di L2 B2 Li NP NP NP 
002684 B2 Ui Di L  U2 B  Ui NP NP 
002685 R2 U  R  Ui R2 D  Ri NP NP 
002686 B2 Di L  U  B  Ui Bi NP NP 
002687 B2 Li Di B2 NP NP NP NP NP 
002688 B2 L  D  L  B  NP NP NP NP 
002689 U2 F  Ri Fi U2 L  D  NP NP 
002690 U2 Ri Ui R  Ui L  Bi NP NP 
002691 U  Bi R  Bi Ri Ui L2 NP NP 
002692 Ui L  U  B2 L2 D2 B  NP NP 
002693 B2 L  D  B2 L  D2 B  NP NP 
002694 B2 D  L  D2 B  L  NP NP NP 
002695 B2 L  D  B2 L  Di B  NP NP 
002696 B  Li B  Di L2 NP NP NP NP 
002697 Ri B  Li R  B2 Di L2 NP NP 
002698 B2 L  Di B2 D2 L  B  NP NP 
002699 B  L  B  L2 Di NP NP NP NP 
002700 Ui L  U  B  L2 B  L2 NP NP 
002701 U  R  D2 Bi Ri Ui Li NP NP 
002702 B2 L  D  B  L  B  NP NP NP 
002703 Ri Bi R  B2 D  L2 NP NP NP 
002704 B  L2 D  L  B  Di L2 NP NP 
002705 B2 L  D  Bi L  B  NP NP NP 
002706 Ui L  U  B2 L2 B  NP NP NP 
002707 B2 L  Bi Li Di L2 NP NP NP 
002708 B  L  B  L2 B2 Di NP NP NP 
002709 U  Ri U  Fi R  U2 B2 NP NP 
002710 U  B2 R  Bi Ri Ui L  NP NP 
002711 B2 D  B  L  D  B  Li NP NP 
002712 B  Ui L  U  B2 NP NP NP NP 
002713 B  L2 Ui D  L  U  Di NP NP 
002714 B  L2 Ui Li U  L2 B2 NP NP 
002715 Ui Li U2 D2 B  Ui L  NP NP 
002716 Bi D  B2 Li Bi Di NP NP NP 
002717 B  Ui L  U  D  B2 NP NP NP 
002718 B  Ui Li D  L2 U  D2 NP NP 
002719 Ri F  U  Fi R  Bi NP NP NP 
002720 Ui Li U2 B  Ui L  NP NP NP 
002721 Bi D2 B2 Di Li Di NP NP NP 
002722 Bi U  R  D  Ri Ui Li NP NP 
002723 Ui Li U2 D  B  Ui L  NP NP 
002724 B  Ui L  U  D2 B2 NP NP NP 
002725 Bi D2 B2 Li Di Li NP NP NP 
002726 Bi D  B2 Li B  Di NP NP NP 
002727 Bi R  D  Li Ri NP NP NP NP 
002728 Bi D  B2 Li Di NP NP NP NP 
002729 B  Li B2 D  Li D2 NP NP NP 
002730 B2 L  D  Bi L  B  L  NP NP 
002731 Ri Bi R  B2 D  Li NP NP NP 
002732 Ui L  U  L2 B2 Li Bi NP NP 
002733 U2 F  Ri Fi U2 D  L2 NP NP 
002734 U2 Ri Ui R  Ui L2 Bi NP NP 
002735 B2 L2 D  L  B  NP NP NP NP 
002736 B2 D  L  D2 B  L2 NP NP NP 
002737 B2 L2 Bi Li B2 Di L2 NP NP 
002738 B  Li B  Di Li NP NP NP NP 
002739 U  R  B2 D2 B  Ri Ui NP NP 
002740 U  Fi R  F  Ui D2 Bi NP NP 
002741 B2 D  L  B  L2 NP NP NP NP 
002742 Ui L  U  L2 B2 D2 Li Bi NP 
002743 U  Bi R  Bi Ri Ui Li NP NP 
002744 Ui L  U  B2 L2 D2 B  L  NP 
002745 U  R  D2 Bi Ri Ui NP NP NP 
002746 B2 D  L  D  B  L2 NP NP NP 
002747 U  R  B2 D2 Ri B  Ui NP NP 
002748 R  Di Ri B  Li Di NP NP NP 
002749 B2 L  Bi Li Di Li NP NP NP 
002750 U  R  B2 D2 Ri Ui B  NP NP 
002751 Bi U2 R  D  Ri U2 NP NP NP 
002752 B  Ui L  U  D2 B2 L  NP NP 
002753 Bi D2 B2 Li Di NP NP NP NP 
002754 U  B2 R  Bi Ri Ui L2 NP NP 
002755 B2 D  B  L  D  B  NP NP NP 
002756 Bi R  F  Li D  Fi Ri NP NP 
002757 B  L2 B2 D2 L  Di NP NP NP 
002758 Bi R  F  D  Fi Ri NP NP NP 
002759 B  Li B  D2 B  D  NP NP NP 
002760 Ui L  U2 B  Ui L2 B  NP NP 
002761 Bi R  Fi D  F  Ri NP NP NP 
002762 B  Li D2 B2 D  NP NP NP NP 
002763 B  L2 Di L  D2 B2 D  NP NP 
002764 Ri Bi R  Bi D  NP NP NP NP 
002765 B  Li B  Di B  D  Bi NP NP 
002766 Bi U  R  D  Ri Ui NP NP NP 
002767 Bi D2 Li B2 Li Di NP NP NP 
002768 Bi R  Di L2 D2 Ri NP NP NP 
002769 Bi R  D  Ri NP NP NP NP NP 
002770 B  Ui L  U  L  B2 NP NP NP 
002771 B  Li Bi D2 Bi D  NP NP NP 
002772 U  R  B2 Di Ri B  Ui NP NP 
002773 B  Li B  D2 Li D  NP NP NP 
002774 B2 Li Di L  D2 L  B  NP NP 
002775 U  R  Di Bi Ri Ui L2 NP NP 
002776 U  B2 U2 Li U  D  B  NP NP 
002777 Ri B2 R2 Di Ri Bi Li NP NP 
002778 Bi Ri Bi Li R2 D  Ri NP NP 
002779 B2 Li D  L  B  NP NP NP NP 
002780 U  Fi Ri F  Ui B2 D2 NP NP 
002781 B2 Li B  D2 B2 Li Di NP NP 
002782 Ri B  Li R2 Di Ri NP NP NP 
002783 B  Li D2 B  Li D  NP NP NP 
002784 Ri B2 R2 Di Ri Bi NP NP NP 
002785 U  R  B2 Di Ri Ui B  NP NP 
002786 U  B2 U2 Li U  D  B  L  NP 
002787 U  R  Di Bi Ri Ui NP NP NP 
002788 B  Ui Li U  D  B  D2 NP NP 
002789 Ri B2 R2 Di Ri Bi L  NP NP 
002790 U  Fi R  F  Di Bi Ui NP NP 
002791 R  D  Ri Di B  Li Di NP NP 
002792 U  R  B2 Di B  Ri Ui NP NP 
002793 B  Li D  Li B2 D2 NP NP NP 
002794 B  L2 B2 Di L  Di L  NP NP 
002795 Bi D  R  D  Li Ri NP NP NP 
002796 B  L2 B2 Di L  Di L2 NP NP 
002797 Bi D  R  D  Ri NP NP NP NP 
002798 B  Li D  L2 B2 D2 NP NP NP 
002799 B2 D  B  L  D2 B  NP NP NP 
002800 B  L2 B2 Di B  L  Di NP NP 
002801 B  Li D  B2 L  D2 NP NP NP 
002802 B  Li Bi D  L2 Bi D2 NP NP 
002803 Bi D  B2 D2 Li B2 Di NP NP 
002804 B  Li D  B2 D2 NP NP NP NP 
002805 B  Li D  L2 B2 D2 L  NP NP 
002806 R2 Ui F  Li U  R2 B  NP NP 
002807 Bi D  R  D  L  Ri NP NP NP 
002808 B  L2 B2 Di L  Di NP NP NP 
002809 Bi D  R  D  L2 Ri NP NP NP 
002810 B  Li D  B2 L2 D2 NP NP NP 
002811 B  Li D  L  B2 D2 NP NP NP 
002812 Bi D  B2 D2 Li Di NP NP NP 
002813 B  Li Bi D  Bi D2 NP NP NP 
002814 B  Li D  B  Li D2 NP NP NP 
002815 Ri U  Ri Ui R2 Bi L2 NP NP 
002816 F2 U  R  Ui F2 L  Bi NP NP 
002817 Ri U  Ri Ui R2 Bi Li NP NP 
002818 F2 U  R  Ui F2 L2 Bi NP NP 
002819 B  Li D  B  Li D2 L  NP NP 
002820 U  B2 U2 Li U  D2 B  NP NP 
002821 B  Li Di Ri Bi R  B  NP NP 
002822 U  B  Ui B  Li B  Di NP NP 
002823 B  Li D  L2 B  Li D2 NP NP 
002824 U  Fi R  F  Ui Bi NP NP NP 
002825 F2 U  R  Bi Ui F2 NP NP NP 
002826 B  Li D  B  Li D2 L2 NP NP 
002827 Ri U  Ri Ui R2 Bi NP NP NP 
002828 B  Ui Li U  B  Di Li NP NP 
002829 Bi Ri B  R2 D  Ri NP NP NP 
002830 B  Ui Li U  B  Di NP NP NP 
002831 Ri B2 R2 Di Ri D  Bi NP NP 
002832 U  Fi R  F  Bi Ui NP NP NP 
002833 B2 L2 D  L  D2 B  NP NP NP 
002834 U  Fi R  F  Ui B  Li B2 NP 
002835 Ui Li U  Bi L  Di B2 NP NP 
002836 F2 Bi Di R  D  Ri F2 NP NP 
002837 B  L2 D2 B2 L  Di NP NP NP 
002838 B  Li B2 D  Bi D2 NP NP NP 
002839 B  L2 D  L  B2 Di NP NP NP 
002840 B  Li B2 D2 B2 D  NP NP NP 
002841 Bi Di R  D  Ri NP NP NP NP 
002842 B  Li B2 D  B2 D2 NP NP NP 
002843 B  L2 Di L  B2 Di NP NP NP 
002844 B  L2 Bi D2 L  Bi Di NP NP 
002845 Fi Bi Di F  R  D  Ri NP NP 
002846 B  L  B2 L2 Di NP NP NP NP 
002847 B  Li B2 D2 Bi D  NP NP NP 
002848 B  L  Bi L2 Bi Di Li NP NP 
002849 B  L2 D  L  B2 Di L  NP NP 
002850 B  L  Bi L2 Bi Di NP NP NP 
002851 B  L2 D2 L  B2 Di NP NP NP 
002852 B2 L  Bi Li B  Di NP NP NP 
002853 B2 D  B  L  Di B  NP NP NP 
002854 B  L2 Di B2 L  Di NP NP NP 
002855 B  Li B2 Di NP NP NP NP NP 
002856 Ui L  U  B  L2 B  NP NP NP 
002857 U  R  D2 Bi Ri Ui L  NP NP 
002858 B2 D  L  D  B  Li NP NP NP 
002859 Ri Bi R  B2 D  NP NP NP NP 
002860 B  L2 D  L  B  Di NP NP NP 
002861 B  U  Bi Ui Li D2 B  NP NP 
002862 B  Li D  L2 B  D2 NP NP NP 
002863 B2 Di Bi D2 L  B  NP NP NP 
002864 B  Li B  Di NP NP NP NP NP 
002865 Ri B  Li R  B2 Di NP NP NP 
002866 U  Fi Bi R  F  Ui Bi NP NP 
002867 B  Li D  B  D2 NP NP NP NP 
002868 B2 L  D  L  B  L2 NP NP NP 
002869 U2 F  Ri Fi U2 D  Li NP NP 
002870 Ui L  U  B  D  L2 B  NP NP 
002871 U  Bi R  Bi Ri Ui NP NP NP 
002872 B2 U  L  Bi Li Ui Di NP NP 
002873 B  L  B  L2 D  L2 D2 NP NP 
002874 B  L2 D2 L  B  Di NP NP NP 
002875 B2 L  Bi Li Di NP NP NP NP 
002876 B  L  Bi L2 B2 Di NP NP NP 
002877 B  Ui L2 U  Bi L  Di NP NP 
002878 U2 R  F2 D  Ri U2 Bi NP NP 
002879 Ui Li U2 D  B  Ui Li NP NP 
002880 B  Ui L  U  D2 B2 L2 NP NP 
002881 B  L2 B2 D  L  Di NP NP NP 
002882 Bi U2 R  D  Ri U2 L  NP NP 
002883 Ui Li U2 D2 B  Ui Li NP NP 
002884 R2 Ui F2 Li U  R2 B  NP NP 
002885 B  Ui L  U  D  B2 L2 NP NP 
002886 Ui L  U2 B  Ui L2 B  L  NP 
002887 U  Fi R  F  Ui D  Bi NP NP 
002888 U  B  Ui B  Li Di NP NP NP 
002889 Ri U  Ri F  Ui R2 B2 D2 NP 
002890 U  B2 R  Bi Ri Ui Li NP NP 
002891 R  D  L  R2 Bi R  D  NP NP 
002892 U  R  D  Bi Ri Ui NP NP NP 
002893 U  Fi Ri F  Ui B  D2 NP NP 
002894 Ui L  U  L2 B  Ui Li U  NP 
002895 B  Ui Li U  Di NP NP NP NP 
002896 Bi D  B2 Li Di L2 NP NP NP 
002897 B  Li B2 D  L  D2 NP NP NP 
002898 B  L2 Ui Li U  L  B2 NP NP 
002899 B  Ui L  U  Li B2 NP NP NP 
002900 B  Li B2 D  B2 L2 D2 NP NP 
002901 Bi U  R  D  Ri Ui L2 NP NP 
002902 Ui Li U2 D  B  Ui NP NP NP 
002903 Ui Li U  Bi D  L2 B2 NP NP 
002904 Ui Li U2 D2 B  Ui NP NP NP 
002905 R2 Fi U  F  R  Bi R  NP NP 
002906 B2 U  Di Ri Bi R  Ui NP NP 
002907 B  Li B2 D  B  L2 D2 NP NP 
002908 U  Fi B  R  F  Ui Bi NP NP 
002909 Ui Li U2 B  Ui NP NP NP NP 
002910 R2 Fi U  Ri F  Ri D2 NP NP 
002911 B  Ui L  U  D2 B2 Li NP NP 
002912 Bi D2 B2 Li Di L2 NP NP NP 
002913 U  B2 R  Bi Ri Ui NP NP NP 
002914 Ui L  U  Bi D  L2 B  NP NP 
002915 B  L  B2 L2 D  L2 D2 NP NP 
002916 Bi R  D  L2 Ri NP NP NP NP 
002917 Bi D  B2 Li Di Li NP NP NP 
002918 B  Li B2 D  L2 D2 NP NP NP 
002919 B  L  B  L2 D  Li D2 NP NP 
002920 U2 F2 D  Ri F2 U2 Bi NP NP 
002921 F  U2 F  Ri U2 F2 D  NP NP 
002922 U  R  D2 Bi Ri Ui L2 NP NP 
002923 B2 D  L  D  B  NP NP NP NP 
002924 U2 F  Ri Fi U2 B  D  NP NP 
002925 B2 D  L  D2 B  NP NP NP NP 
002926 B  L2 Di B  L  Di NP NP NP 
002927 B  Li B  Di L  NP NP NP NP 
002928 B2 L  Di Ri Bi R  NP NP NP 
002929 B2 L2 Bi Li B  Di NP NP NP 
002930 B2 D  L  B  NP NP NP NP NP 
002931 U2 F  Ri Fi U2 B2 D  NP NP 
002932 Ri Bi R  B2 D  L  NP NP NP 
002933 B2 L  Ri B  R  B  D  NP NP 
002934 U2 F  Ri Fi U2 D  NP NP NP 
002935 B  L2 B  D2 L  B2 Di NP NP 
002936 B2 L2 Bi Li Di NP NP NP NP 
002937 B2 D  L  Di B  NP NP NP NP 
002938 B2 L  R  Di Ri Bi NP NP NP 
002939 B  L2 B  L  B2 Di NP NP NP 
002940 B  L2 Di Bi L  Di NP NP NP 
002941 B  Li Bi Di L  NP NP NP NP 
002942 Ui L  U  Fi D2 F  L  NP NP 
002943 B  Li Bi Di L2 NP NP NP NP 
002944 B  L2 Bi D  L  Di NP NP NP 
002945 U  R  Bi Ri U2 L  U  NP NP 
002946 B  L2 Bi D2 L  Di NP NP NP 
002947 F  Ui L  U  Fi Li D2 NP NP 
002948 Ui Li U  Ri B  R  NP NP NP 
002949 B  L2 D2 L  Bi Di NP NP NP 
002950 B2 L  Bi Li B2 Di NP NP NP 
002951 B  L  Bi L2 Di NP NP NP NP 
002952 U  R  Bi Ri U2 L2 U  NP NP 
002953 B  Li Bi Di Li NP NP NP NP 
002954 Ui L  U  Fi D2 F  Li NP NP 
002955 B  Li Bi Di NP NP NP NP NP 
002956 Ui L  U  Fi D2 F  NP NP NP 
002957 B  L2 D2 Bi L  Di NP NP NP 
002958 Ri Bi R  D  NP NP NP NP NP 
002959 B  Li D  L2 Bi D2 NP NP NP 
002960 B  L2 Di L  Bi Di NP NP NP 
002961 Bi R  Di Li Ri D2 NP NP NP 
002962 R  D  Ri B  D2 Li Di NP NP 
002963 Bi D2 Li R  D  Ri NP NP NP 
002964 B  Ui Li U  D2 B2 D  NP NP 
002965 U  Fi Ri F  Ui Bi D2 NP NP 
002966 Bi D2 L  R  D  Ri NP NP NP 
002967 R2 U  Fi R  Bi Ui R  NP NP 
002968 B  Li B2 D  L  B2 D2 NP NP 
002969 R  D  Ri B  Li Di NP NP NP 
002970 Bi D2 R  D  Ri NP NP NP NP 
002971 U  Fi Ri F  D2 B  Ui Bi NP 
002972 Bi R  Di Ri D2 NP NP NP NP 
002973 Ri U  Ri F  Ui R2 D2 NP NP 
002974 B2 Li Bi Di Li B  Di NP NP 
002975 R  D  L  Ri B  Li Di NP NP 
002976 U  Bi R  Di Bi Ri Ui NP NP 
002977 Bi D2 L2 R  D  Ri NP NP NP 
002978 Bi R  Di L2 Ri D2 NP NP NP 
002979 U  B2 U2 Li U  Di B  NP NP 
002980 Bi Ri Ui Li B2 U  R  NP NP 
002981 U  B  Ui B  Li B2 Di NP NP 
002982 B  Li D  Li D2 NP NP NP NP 
002983 B  L2 Di L  Di L  NP NP NP 
002984 Ui L  U  L2 B  Li NP NP NP 
002985 B  L2 Di L  Di L2 NP NP NP 
002986 Ui L  U  L2 B  NP NP NP NP 
002987 Ui Li U  Bi L2 B2 NP NP NP 
002988 Ui Li U  D2 B  NP NP NP NP 
002989 B2 L  Bi Li Bi Di NP NP NP 
002990 B  Li D  L  D2 NP NP NP NP 
002991 B  L2 R  D2 L  Di Ri NP NP 
002992 U  Fi B2 R  F  Ui Bi NP NP 
002993 B  Li Di NP NP NP NP NP NP 
002994 B  Li D  L2 D2 Li NP NP NP 
002995 B  L2 Di L  Di Li NP NP NP 
002996 Ui L  U  L2 B  L  NP NP NP 
002997 B  L2 Di L  Di NP NP NP NP 
002998 Ri Bi R  B  D  NP NP NP NP 
002999 B  Li D  L2 D2 NP NP NP NP 
003000 Ui Li U  Di B  NP NP NP NP 
003001 Ui L  U  Li Di Li B  NP NP 
003002 B  L  B2 L2 B2 Di NP NP NP 
003003 Fi U  Ri Ui F  Li D2 NP NP 
003004 U  B  R  Bi Ri Ui L  NP NP 
003005 Bi R  D  Ri B  L  Bi NP NP 
003006 U  B  R  Bi Ri Ui L2 NP NP 
003007 Fi U  Ri Ui D  F  D2 NP NP 
003008 U  Fi Ri F  Ui R  D2 Ri NP 
003009 B  Ui Li U  Bi Di NP NP NP 
003010 Bi D  B2 L  Bi L2 Di NP NP 
003011 Fi U  Ri Ui F  L  D2 NP NP 
003012 Fi U  Ri Ui D2 F  Li D2 NP 
003013 R2 U  R  Bi Ui R  NP NP NP 
003014 Fi U  Ri Ui F  D2 NP NP NP 
003015 U  R  D2 Bi Ri U2 L2 U  NP 
003016 U  B  R  Bi Ri Ui Li NP NP 
003017 Fi U  Ri Ui D  F  D2 L  NP 
003018 U  B  R  Bi Ri Ui NP NP NP 
003019 F  U  B2 U2 L  U  Fi D2 NP 
003020 Fi U  Ri Ui F  L2 D2 NP NP 
003021 U  Fi Ri F  Ui D2 NP NP NP 
003022 U2 Ri F  Ui B2 R  Ui B2 NP 
003023 U  R  Bi R2 U  R  U2 NP NP 
003024 B2 L2 NP NP NP NP NP NP NP 
003025 B  L2 B  Di L2 B  NP NP NP 
003026 B  Ui F  Ui Fi U2 B  NP NP 
003027 U2 F2 R2 U  D2 F2 U  NP NP 
003028 B2 Di Li B2 Li D  NP NP NP 
003029 B2 Di L2 Bi D  NP NP NP NP 
003030 F  B2 Li Fi Li NP NP NP NP 
003031 B2 L  B2 L  Di B2 NP NP NP 
003032 B2 L  D2 Li D2 L2 NP NP NP 
003033 R2 Ui F2 U  R2 B2 NP NP NP 
003034 B2 L  B2 D  L  B2 NP NP NP 
003035 R  D2 L2 Ri B2 L  NP NP NP 
003036 B2 D2 L2 D2 NP NP NP NP NP 
003037 B2 L2 U  Bi Ui B  NP NP NP 
003038 Fi B2 D  F  Di L2 NP NP NP 
003039 B2 Ui L2 U  NP NP NP NP NP 
003040 B2 L  Ui L2 U  L  NP NP NP 
003041 B2 L  B2 L  B2 NP NP NP NP 
003042 B2 L  B2 D2 L  B2 NP NP NP 
003043 B2 L  Ui Li U  L  NP NP NP 
003044 B2 L  B  L  Bi NP NP NP NP 
003045 Bi D  B  L2 B2 L  NP NP NP 
003046 Bi D  Li U  Di Bi Ui NP NP 
003047 B  U  B  U2 L  U  NP NP NP 
003048 Bi D  Li Bi NP NP NP NP NP 
003049 U  B  Ui L  Bi D2 Bi NP NP 
003050 U  B  Ui L2 B2 Li NP NP NP 
003051 B2 Li Fi D  F  Di NP NP NP 
003052 Bi D  B  Li Di B2 NP NP NP 
003053 Bi D  Li D  Bi NP NP NP NP 
003054 Bi Di Bi D2 Li D2 NP NP NP 
003055 Bi D  Li B2 Di B  NP NP NP 
003056 Bi D2 B2 Di B  Li NP NP NP 
003057 Bi D  Bi Li NP NP NP NP NP 
003058 Bi D2 L  Di Li Bi NP NP NP 
003059 Bi D  Li D2 Bi NP NP NP NP 
003060 Bi D  Li B  D2 B2 NP NP NP 
003061 Bi D  Li Di Bi NP NP NP NP 
003062 U  B  Ui B2 L  NP NP NP NP 
003063 Ri F  B2 U  Fi R  NP NP NP 
003064 Bi D  Bi Ui Li U  NP NP NP 
003065 B2 Di B  D  Li NP NP NP NP 
003066 B2 L2 Ui L  U  NP NP NP NP 
003067 Fi L  B2 Li F  NP NP NP NP 
003068 B2 Li Di L2 D  NP NP NP NP 
003069 B2 Di L  B2 D  L2 NP NP NP 
003070 F  B2 L2 Ui L  U  Fi NP NP 
003071 B2 Li NP NP NP NP NP NP NP 
003072 F  B2 Li Fi NP NP NP NP NP 
003073 B2 L  B2 Di L2 B2 NP NP NP 
003074 B2 L  D2 Li D2 Li NP NP NP 
003075 B2 Li D2 Bi Li D2 NP NP NP 
003076 R  D  L  Ri D  B2 NP NP NP 
003077 R  D2 L2 Ri B2 L2 NP NP NP 
003078 U  B2 Ui Li B2 NP NP NP NP 
003079 Ui L2 U  D2 B2 D  Li NP NP 
003080 R  Di Ri Bi Di Bi NP NP NP 
003081 R  F  D2 Fi Ri B2 NP NP NP 
003082 B2 Li Di L  D  NP NP NP NP 
003083 B2 L  B2 L2 B2 NP NP NP NP 
003084 B2 L  B  D  L2 Bi NP NP NP 
003085 B2 Li D2 B  D2 NP NP NP NP 
003086 B2 L  B  L  Bi L  NP NP NP 
003087 U  B  Ui B2 L2 NP NP NP NP 
003088 B2 Di B2 L  Bi D  NP NP NP 
003089 Bi U  D  Bi Ui NP NP NP NP 
003090 B2 Di B  Di Bi D2 NP NP NP 
003091 U  B  Ui F  B2 L2 Fi NP NP 
003092 Ui L2 U  D2 Bi D  NP NP NP 
003093 B2 Di Bi Li B2 D  NP NP NP 
003094 B2 Di B  Di B2 D2 NP NP NP 
003095 B2 Di B  D2 Bi Di NP NP NP 
003096 Bi D  L  Ui Li U  Bi NP NP 
003097 B2 Ri Di B  D  R  NP NP NP 
003098 Bi D2 B2 Di B  NP NP NP NP 
003099 U  B  Ui L2 B2 NP NP NP NP 
003100 Bi D  L2 Bi L2 NP NP NP NP 
003101 Bi D  Li D2 L  Bi NP NP NP 
003102 B  Li B2 L  D  B  NP NP NP 
003103 Bi D  Li D2 Bi L  NP NP NP 
003104 Bi D  Bi NP NP NP NP NP NP 
003105 Bi D2 L2 Di Bi NP NP NP NP 
003106 Bi D2 B  Di B2 NP NP NP NP 
003107 B2 Di B  D  NP NP NP NP NP 
003108 B2 Di Li D  L2 NP NP NP NP 
003109 B2 L  B  L2 D  Bi NP NP NP 
003110 R  Di Ri B2 L  NP NP NP NP 
003111 B2 Di Li B2 D  L2 NP NP NP 
003112 R  Di Ri B2 L2 NP NP NP NP 
003113 B2 Di Li Bi D  NP NP NP NP 
003114 Ri Bi R2 Di R2 Bi R  NP NP 
003115 R  D  Ri D2 B2 NP NP NP NP 
003116 B2 Di L  B2 L2 D  NP NP NP 
003117 R  Di Ri U  B  Ui B2 NP NP 
003118 R  D  L  Ri D2 B2 NP NP NP 
003119 B2 L  B2 D2 L2 D  B2 NP NP 
003120 B2 Di Li D  NP NP NP NP NP 
003121 B2 Di Li B2 D  Li NP NP NP 
003122 R  Di R2 B2 R  NP NP NP NP 
003123 B2 Di Li B2 D  NP NP NP NP 
003124 R  Di Ri B2 NP NP NP NP NP 
003125 B2 Di Li D  L  NP NP NP NP 
003126 Ri B  R2 Di Ri B  NP NP NP 
003127 R  Di Ri Bi L  Bi NP NP NP 
003128 B2 Di Li B  D  NP NP NP NP 
003129 B2 D2 B  D2 L2 NP NP NP NP 
003130 Bi D2 L  Bi L  NP NP NP NP 
003131 Bi D2 Li Bi NP NP NP NP NP 
003132 Bi D2 L  Bi L2 NP NP NP NP 
003133 Bi D2 Bi NP NP NP NP NP NP 
003134 B2 D2 B  D2 Li NP NP NP NP 
003135 U2 R  F2 Ri U2 Bi D2 NP NP 
003136 R2 U2 F  Li U2 R2 Bi NP NP 
003137 B2 D2 B  R  D2 Ri NP NP NP 
003138 Bi U2 L  D2 Li U2 Bi NP NP 
003139 Bi D2 B  L2 B2 NP NP NP NP 
003140 Bi Ui D2 L2 U  Bi NP NP NP 
003141 B2 D2 B  D2 NP NP NP NP NP 
003142 Bi D2 L  Bi Li NP NP NP NP 
003143 Bi D2 Bi L  NP NP NP NP NP 
003144 Bi D2 L  Bi NP NP NP NP NP 
003145 Bi D2 Bi L2 NP NP NP NP NP 
003146 B2 D2 B  D2 L  NP NP NP NP 
003147 Bi D2 L2 Bi NP NP NP NP NP 
003148 Bi Ui D2 Li U  Bi NP NP NP 
003149 Bi D  B  D  B2 NP NP NP NP 
003150 B2 D2 Li D2 L2 NP NP NP NP 
003151 R  Di Ri D  L2 B2 NP NP NP 
003152 R  D  L2 Ri Di B2 NP NP NP 
003153 R  Di Ri Bi D  Bi NP NP NP 
003154 U  B2 Ui Li Bi D2 Bi NP NP 
003155 B2 D2 Li D2 Li NP NP NP NP 
003156 B2 L  B2 L2 Bi D2 Bi NP NP 
003157 U2 Fi D  R  F  U2 B2 NP NP 
003158 B2 D2 Li D  B2 L2 D  NP NP 
003159 R  Di Ri D  L  B2 NP NP NP 
003160 R  D  L  Ri Di B2 NP NP NP 
003161 B2 L  D2 L2 D2 NP NP NP NP 
003162 B2 D2 Li D2 NP NP NP NP NP 
003163 B2 Li B  D2 Bi NP NP NP NP 
003164 R2 Fi R  B2 R2 F  Ri NP NP 
003165 B2 Li B  D2 Bi L  NP NP NP 
003166 R  Di Ri B  D  B  NP NP NP 
003167 R  D  Ri Di B2 NP NP NP NP 
003168 U  B2 Ui Ri B2 R  NP NP NP 
003169 R  Di Ri D  B2 NP NP NP NP 
003170 Bi Ri B  R  Bi NP NP NP NP 
003171 B2 D  B  Di L2 NP NP NP NP 
003172 F2 D  Bi Di F2 Bi NP NP NP 
003173 Bi D2 Li D  Bi NP NP NP NP 
003174 Bi D2 L2 B  D  B2 NP NP NP 
003175 Bi D2 L2 D  L2 Bi NP NP NP 
003176 Fi Bi Di F  Bi NP NP NP NP 
003177 Bi Di Bi NP NP NP NP NP NP 
003178 Ui L  U  B  L  B2 Di NP NP 
003179 B2 D  B  D2 B2 L2 D  NP NP 
003180 Ui Li U  Di Li Bi Di NP NP 
003181 Bi D2 B  L2 D  B2 NP NP NP 
003182 Bi D  B  D2 L2 B2 NP NP NP 
003183 B2 D  B  Di NP NP NP NP NP 
003184 U  Fi R2 F  Ui Bi D  NP NP 
003185 Bi D2 Li D  Bi L2 NP NP NP 
003186 B  Li B2 L  Di B  NP NP NP 
003187 Fi Bi Di F  L  Bi NP NP NP 
003188 B2 D  B  Di L  NP NP NP NP 
003189 Bi D2 L2 D  Bi NP NP NP NP 
003190 Fi Bi Di F  L2 Bi NP NP NP 
003191 B2 D  B  D2 B  D  NP NP NP 
003192 B2 L2 Ui L2 U  NP NP NP NP 
003193 B  L2 Di L2 B  NP NP NP NP 
003194 Fi B2 D  F  Di NP NP NP NP 
003195 B2 Ui L2 U  L2 NP NP NP NP 
003196 U2 L  Di Li U2 B2 NP NP NP 
003197 B2 R  D2 Ri D2 NP NP NP NP 
003198 F  B2 Li Fi L  NP NP NP NP 
003199 B2 Li F  L  Fi NP NP NP NP 
003200 B2 L  D2 Li D2 NP NP NP NP 
003201 R2 Di L2 D  R2 B2 NP NP NP 
003202 R  D  L  Di Ri B2 NP NP NP 
003203 R  D2 L2 Ri B2 Li NP NP NP 
003204 B2 NP NP NP NP NP NP NP NP 
003205 B2 Di L  B2 D  Li NP NP NP 
003206 B2 L  Di B2 Li D  NP NP NP 
003207 Ui L2 U  D2 B2 D  NP NP NP 
003208 U2 Fi D2 F  U2 B2 NP NP NP 
003209 U2 L  D2 Li U2 B2 NP NP NP 
003210 B  L2 D2 L2 B  NP NP NP NP 
003211 U2 Fi Di F  U2 B2 NP NP NP 
003212 Ui Li D  L  U  B2 NP NP NP 
003213 Bi D  Bi L  NP NP NP NP NP 
003214 B2 L  B  L2 Di Bi NP NP NP 
003215 B  U  B  U2 Li U  NP NP NP 
003216 B2 L  B  L2 Di L  Bi NP NP 
003217 Bi U  D  Bi Ui L  NP NP NP 
003218 U  B  Ui B2 Li NP NP NP NP 
003219 B2 Li Di Li Bi D  NP NP NP 
003220 Ri Ui L2 B  U  R  Di NP NP 
003221 R  Di Ri Bi D2 Bi NP NP NP 
003222 Bi Di Bi D2 Li D2 L2 NP NP 
003223 B2 Ri Di B  D  L  R  NP NP 
003224 Ri B  Ui B  U  R  NP NP NP 
003225 B2 D  B  D  L  D2 NP NP NP 
003226 R  Di Ri Bi Li D2 Bi NP NP 
003227 B  U  B  U2 L  U  L2 NP NP 
003228 B2 Li B  Di Bi NP NP NP NP 
003229 U  Bi Ui R  Di Ri B2 NP NP 
003230 U  B  Ui L2 B2 L  NP NP NP 
003231 B2 Li B  Di L  Bi NP NP NP 
003232 B2 L  Bi U  B  Ui NP NP NP 
003233 B2 Di B  D  L  NP NP NP NP 
003234 U  B  Ui L2 B2 L2 NP NP NP 
003235 Bi D  L2 Bi NP NP NP NP NP 
003236 U  Bi Ui B  U  B  Ui NP NP 
003237 B2 U  L  B  Li Bi Ui NP NP 
003238 U  B  Ui Bi D2 Bi NP NP NP 
003239 Bi D  Bi L2 NP NP NP NP NP 
003240 U  B  Ui Bi Di Bi NP NP NP 
003241 Bi D  B  L2 Di B2 NP NP NP 
003242 Bi D  Li D  Li Bi NP NP NP 
003243 Bi D  Bi L2 Bi Di B  NP NP 
003244 B  U  B  Ri U  R  U2 NP NP 
003245 Bi D2 B2 Di B  L2 NP NP NP 
003246 U  B  Ui B2 NP NP NP NP NP 
003247 Bi D2 L  Di L2 Bi NP NP NP 
003248 R2 Fi U  F  R2 D  NP NP NP 
003249 Bi D2 Li Di L2 Bi NP NP NP 
003250 B  Ui Li U  L  B  NP NP NP 
003251 Bi D  B  L2 B2 NP NP NP NP 
003252 U  B  Ui Ri B2 R  NP NP NP 
003253 Bi D2 B  Di B2 L2 NP NP NP 
003254 B2 Di B  D  L2 NP NP NP NP 
003255 U  B2 Ui Li B2 L2 NP NP NP 
003256 Ui L2 U  D2 B2 L  D  NP NP 
003257 B2 Di Li Bi L2 D  NP NP NP 
003258 B  L2 Di L2 B  L  NP NP NP 
003259 B2 L  Ui L  U  NP NP NP NP 
003260 B2 L  B2 D2 B2 NP NP NP NP 
003261 F  B2 Li Fi L2 NP NP NP NP 
003262 B2 L  B2 Di B2 NP NP NP NP 
003263 R  D2 L2 R2 B2 R  NP NP NP 
003264 Ui L  U  B2 L  Bi Di NP NP 
003265 B2 L  D  B  Di NP NP NP NP 
003266 R  D2 L2 Ri B2 NP NP NP NP 
003267 B2 D2 L  D2 NP NP NP NP NP 
003268 B2 Ui L2 U  Li NP NP NP NP 
003269 B2 L  Ui L2 U  NP NP NP NP 
003270 B2 Di L  B2 D  NP NP NP NP 
003271 Ui L  U  B2 L  B2 Di NP NP 
003272 B2 L  NP NP NP NP NP NP NP 
003273 Ri F  B2 U2 Fi R  NP NP NP 
003274 B2 L  Ui Li U  NP NP NP NP 
003275 B  Li B  L  B  NP NP NP NP 
003276 U  B2 Ui B2 L2 NP NP NP NP 
003277 B2 Di B2 L  D  NP NP NP NP 
003278 Ui L  U  L  Di NP NP NP NP 
003279 B2 Di B2 D  L2 NP NP NP NP 
003280 B2 Di B2 Li D  NP NP NP NP 
003281 U  B2 Ui B2 Li NP NP NP NP 
003282 U  B2 Ui Bi Di Bi NP NP NP 
003283 B2 L  B2 Li Di B2 NP NP NP 
003284 B2 Di B2 L2 D  NP NP NP NP 
003285 B2 Di B2 Di L2 D2 NP NP NP 
003286 Ui L  U  L  D  L  D2 NP NP 
003287 U2 Li R2 U2 Ri B2 Ri NP NP 
003288 U  B2 Ui B2 NP NP NP NP NP 
003289 B2 Di B2 D  Li NP NP NP NP 
003290 Ui L  U  L  Di L2 NP NP NP 
003291 B2 Di B2 D  NP NP NP NP NP 
003292 Ui L  U  L  Di Li NP NP NP 
003293 U  B2 Ui B2 L  NP NP NP NP 
003294 Ri B2 R  NP NP NP NP NP NP 
003295 Ui L  U  B  L  Bi Di NP NP 
003296 Ui L2 Di L  U  NP NP NP NP 
003297 U  B  Ui Li B2 L2 NP NP NP 
003298 B2 L  B  L2 B2 Di B  NP NP 
003299 B2 L  B  U  Bi Ui NP NP NP 
003300 B2 Li Di L  B  D  NP NP NP 
003301 U  B  Ui Li Bi D2 Bi NP NP 
003302 U  B  Ui Li B2 Li NP NP NP 
003303 B2 Li Di Li B  D  NP NP NP 
003304 Bi D  B  L  Di B2 NP NP NP 
003305 B2 Ui L  U  D  Bi Di NP NP 
003306 B2 Li Bi Di B  NP NP NP NP 
003307 B2 L  B2 U  B  Ui B2 NP NP 
003308 Bi D  B  Li D2 L2 B2 NP NP 
003309 U  B  Ui Li B2 NP NP NP NP 
003310 B2 Li B  D2 B2 D  B  NP NP 
003311 B2 L  B  U  Bi Ui L2 NP NP 
003312 B2 Li Di L  B  D  L2 NP NP 
003313 R  Di Ri B  D2 B  NP NP NP 
003314 Bi D  B  L  B2 NP NP NP NP 
003315 B  U  B  R  Bi Ri B  Ui NP 
003316 B  U2 Ri Ui B  R  Ui NP NP 
003317 Bi D  B  L  D  B2 NP NP NP 
003318 U  Bi Ui B2 L2 NP NP NP NP 
003319 B  Li Bi L  B  NP NP NP NP 
003320 B  U  B  Ui NP NP NP NP NP 
003321 B2 L  B  Li Bi NP NP NP NP 
003322 B  U  B  Ui L  NP NP NP NP 
003323 B2 Di Bi D  NP NP NP NP NP 
003324 B2 Di Bi Li D  NP NP NP NP 
003325 Bi D  B  Di B2 NP NP NP NP 
003326 Ri B  R  B2 D2 Bi NP NP NP 
003327 Ui L  U  Bi L  B2 Di NP NP 
003328 Bi D2 B  L2 D2 B2 NP NP NP 
003329 B2 Di B2 D2 B  Di NP NP NP 
003330 U  Bi Ui B2 NP NP NP NP NP 
003331 B2 L  B  Li Bi L  NP NP NP 
003332 B  U  B  Ui L2 NP NP NP NP 
003333 B2 L  B  Li Bi L2 NP NP NP 
003334 Ri B  R  B  NP NP NP NP NP 
003335 U  Bi Ui B2 L  NP NP NP NP 
003336 U  Bi Ui Ri B2 R  NP NP NP 
003337 U2 R  F2 Ri U2 B  D2 NP NP 
003338 Ui L2 U  D2 B  D  NP NP NP 
003339 B2 L2 Ui Li U  NP NP NP NP 
003340 R2 U  R  Ui R  D  L2 NP NP 
003341 R  D  L2 Ri B2 NP NP NP NP 
003342 R  D  Ri B  D2 B  NP NP NP 
003343 R  D  Li Ri B2 NP NP NP NP 
003344 B2 L2 Ui Li U  L  NP NP NP 
003345 B2 Li Di Li B2 D  NP NP NP 
003346 R  D  L  R2 B2 R  NP NP NP 
003347 R  D  Ri B  Di B  NP NP NP 
003348 R  Di Ri D  L  D  B2 NP NP 
003349 R  D  L  Ri B2 NP NP NP NP 
003350 R2 F2 Li U  F2 R2 D  NP NP 
003351 U  R  D  Ri Ui B2 NP NP NP 
003352 R2 U  R  Ui R  D  NP NP NP 
003353 R  D  L2 Ri B2 L2 NP NP NP 
003354 R2 U  R  Ui R  D  L  NP NP 
003355 R  D  L2 Ri B2 Li NP NP NP 
003356 B2 L2 Ui Li U  Li NP NP NP 
003357 Ri F  B2 Ui Fi R  NP NP NP 
003358 Bi D  B2 D2 Ri B  R  NP NP 
003359 R  D  Ri B2 NP NP NP NP NP 
003360 B2 L2 Bi NP NP NP NP NP NP 
003361 B  L2 B  Di L2 NP NP NP NP 
003362 B  Ui F  Ui Fi U2 NP NP NP 
003363 B2 L  B  L  B2 D2 NP NP NP 
003364 B  L2 B  D  L2 Di NP NP NP 
003365 B2 L  B2 L  D2 B  NP NP NP 
003366 B  L2 B  D  L2 NP NP NP NP 
003367 B2 L  B2 L  Di B  NP NP NP 
003368 B2 L  B  L  B2 Di NP NP NP 
003369 B2 L  B  L  B2 NP NP NP NP 
003370 B  L2 B  D2 L2 NP NP NP NP 
003371 B  L2 Di B  L2 NP NP NP NP 
003372 B2 L  B  L  B2 D  NP NP NP 
003373 B  L2 B  D  L2 D2 NP NP NP 
003374 R2 Ui F2 U  R2 B  NP NP NP 
003375 B2 L2 Bi L2 D  L2 NP NP NP 
003376 B  L2 B  L2 NP NP NP NP NP 
003377 B2 L2 U  Bi Ui NP NP NP NP 
003378 B  L2 D2 B  L2 NP NP NP NP 
003379 B2 L  B2 L  B  NP NP NP NP 
003380 B2 Ui L2 U  Bi NP NP NP NP 
003381 B  L2 D2 B2 Li D  Li NP NP 
003382 B  L  B2 D  L  Di L2 NP NP 
003383 B  U  B  U2 L  U  Bi NP NP 
003384 Bi D  Li B2 NP NP NP NP NP 
003385 U  B  Ui L  Bi D2 B2 NP NP 
003386 Bi D  B  Li D2 B  NP NP NP 
003387 U  B  Ui L  Bi Di B2 NP NP 
003388 Bi D  B  Li Di B  NP NP NP 
003389 Bi D  Li B2 D  NP NP NP NP 
003390 Bi D  Li B2 D2 NP NP NP NP 
003391 B2 Li Fi Bi D  F  NP NP NP 
003392 Bi D2 B2 L  Di Li NP NP NP 
003393 Bi D  Li B2 Di NP NP NP NP 
003394 B2 Li Fi Bi D  F  D  NP NP 
003395 B  L2 D2 Li B2 D  Li NP NP 
003396 Bi D  Li D2 B2 NP NP NP NP 
003397 U  B  Ui L  B  NP NP NP NP 
003398 Bi D2 L  Di Li B2 NP NP NP 
003399 Bi D  Li Di B2 NP NP NP NP 
003400 B  Li Ui L  U  NP NP NP NP 
003401 B  Li B2 L2 D  Li NP NP NP 
003402 B2 L2 Ui L  U  Bi NP NP NP 
003403 B2 L  B  L2 B2 NP NP NP NP 
003404 R  D  L2 Ri D  B  NP NP NP 
003405 Bi Ri B  R  B2 D2 NP NP NP 
003406 Ri F  U2 Fi R  B  L2 NP NP 
003407 B2 Li Bi NP NP NP NP NP NP 
003408 F  B2 Li Fi Bi NP NP NP NP 
003409 B2 L  B2 Di L2 B  NP NP NP 
003410 B2 Li Bi L  D2 Li NP NP NP 
003411 B  L  B  L2 B  L  NP NP NP 
003412 B  L  B  L  D2 L2 NP NP NP 
003413 B2 Li Bi L2 B2 L2 NP NP NP 
003414 R  D  L  Ri D  B  NP NP NP 
003415 B2 L  B2 D2 L2 B  NP NP NP 
003416 F  B2 Li Fi Ri Bi R  NP NP 
003417 R  Di R2 B  R  Di NP NP NP 
003418 B  L  B  Li NP NP NP NP NP 
003419 B2 Li B  D2 B2 D2 NP NP NP 
003420 R  Di Ri B  Di NP NP NP NP 
003421 B2 L  B2 L2 B  NP NP NP NP 
003422 R  F  D2 Fi Ri B  NP NP NP 
003423 U  B  Ui B2 L2 Bi NP NP NP 
003424 B  L2 B2 Di L2 D2 NP NP NP 
003425 Bi D2 Li B2 Di NP NP NP NP 
003426 Bi D  Bi Di Li D  Bi NP NP 
003427 Bi D2 L2 D  B2 D2 NP NP NP 
003428 Bi D  B2 L2 B  L2 NP NP NP 
003429 Bi D2 L2 B2 Di NP NP NP NP 
003430 U  B2 Ui B2 Li Bi D  NP NP 
003431 Bi D  Li D  L  B2 NP NP NP 
003432 B2 Di B  D  Bi NP NP NP NP 
003433 Bi D2 L2 Di B2 NP NP NP NP 
003434 Bi D2 B  Di B  NP NP NP NP 
003435 Bi D2 B  L2 Di B  NP NP NP 
003436 Bi D2 B2 Di NP NP NP NP NP 
003437 B  L2 B  Di B  L2 D  NP NP 
003438 Bi D  Li D2 L  B2 NP NP NP 
003439 U  B  Ui L2 B  NP NP NP NP 
003440 Bi D2 L  Di B2 NP NP NP NP 
003441 Bi D2 Bi L2 Bi Di NP NP NP 
003442 Bi D  B2 NP NP NP NP NP NP 
003443 B  Li B2 L  D  NP NP NP NP 
003444 R  Di Ri Bi L2 B2 NP NP NP 
003445 B2 L  B  L2 B2 D  NP NP NP 
003446 R  D  L2 Ri D2 B  NP NP NP 
003447 R  D  L  Ri D  B  D  NP NP 
003448 R  Di Ri B2 L2 Bi NP NP NP 
003449 R  Di Ri Bi Li B2 NP NP NP 
003450 B2 D2 Li D2 B  Di B2 NP NP 
003451 B2 Li Bi D  NP NP NP NP NP 
003452 Bi Ri B  R  B2 Di NP NP NP 
003453 B2 L  B2 L2 D  B  NP NP NP 
003454 Ri B  R2 Di Ri NP NP NP NP 
003455 R  Di Ri Bi L  B2 NP NP NP 
003456 R  D  L  Ri D2 B  NP NP NP 
003457 B  L  B  L  D2 L2 D  NP NP 
003458 U2 F2 R  F2 U2 B  Di NP NP 
003459 R  Di R2 B  R  NP NP NP NP 
003460 B  L  B  Li D  NP NP NP NP 
003461 B2 Li B  D2 B2 Di NP NP NP 
003462 R  Di Ri B  NP NP NP NP NP 
003463 R  D  Ri Di B  Di NP NP NP 
003464 B2 Di Li B2 D  Bi NP NP NP 
003465 B  L2 B2 D2 Bi L2 NP NP NP 
003466 B  L2 B2 Di L2 Di NP NP NP 
003467 Bi D2 Li B2 NP NP NP NP NP 
003468 Bi D2 L  Bi L2 Bi NP NP NP 
003469 Bi D2 B2 NP NP NP NP NP NP 
003470 B2 D2 B  D2 Li Bi NP NP NP 
003471 Bi D2 L2 D  B2 Di NP NP NP 
003472 R2 U2 F  Li U2 R2 B2 NP NP 
003473 U2 Fi D2 R2 F  U2 B  NP NP 
003474 Bi D  B  D  B  NP NP NP NP 
003475 Bi D2 L2 B2 NP NP NP NP NP 
003476 Bi Ui D2 Li U  B2 NP NP NP 
003477 Bi D2 B  L2 B  NP NP NP NP 
003478 Bi Ui D2 L2 U  B2 NP NP NP 
003479 Fi Bi Di F  B2 Di NP NP NP 
003480 Bi D2 Bi L  Bi NP NP NP NP 
003481 U  B2 Ui B  D2 NP NP NP NP 
003482 Bi D2 L  U  B2 Ui NP NP NP 
003483 Bi D2 Bi L2 Bi NP NP NP NP 
003484 Bi D  B2 D  NP NP NP NP NP 
003485 Bi D2 L  B2 NP NP NP NP NP 
003486 B2 D2 Li D2 L2 Bi NP NP NP 
003487 R  Di Ri D  L2 B  NP NP NP 
003488 R  D  L2 Ri Di B  NP NP NP 
003489 R  Di Ri Bi D  B2 NP NP NP 
003490 U  B2 Ui Li Bi D2 B2 NP NP 
003491 U2 F2 R  F2 U2 B  NP NP NP 
003492 F  B2 Li F2 Bi D2 F  NP NP 
003493 U2 Fi D  R  F  U2 B  NP NP 
003494 R  D  L  Ri D  B  D2 NP NP 
003495 Bi Ri B  R  B2 NP NP NP NP 
003496 U2 F2 R  F2 U2 L  B  NP NP 
003497 B2 Li Bi D2 NP NP NP NP NP 
003498 R  D  L  Ri Di B  NP NP NP 
003499 F  B2 Li Fi Bi D2 NP NP NP 
003500 R  Di Ri D  L  B  NP NP NP 
003501 R  Di R2 B  R  D  NP NP NP 
003502 B  L  B  Li D2 NP NP NP NP 
003503 B2 Li B  D2 B2 NP NP NP NP 
003504 R  Di Ri B  D  NP NP NP NP 
003505 R  D  Ri Di B  NP NP NP NP 
003506 R  F  D2 Fi Ri B  D2 NP NP 
003507 Fi Bi Di F  Li B2 NP NP NP 
003508 B  L2 B2 Di L2 NP NP NP NP 
003509 Bi D2 Li B2 D  NP NP NP NP 
003510 B2 Di B  D  Bi D2 NP NP NP 
003511 R  D  Li R2 B  R  NP NP NP 
003512 Fi Bi Di F  B2 NP NP NP NP 
003513 Bi Di B2 NP NP NP NP NP NP 
003514 Fi Bi Di F2 L  Fi B2 NP NP 
003515 Ui L2 Di L  U  Bi Di NP NP 
003516 F2 D  Bi Di F2 Li B2 NP NP 
003517 Bi D2 L2 D  B2 NP NP NP NP 
003518 Fi Bi Di F  L2 B2 NP NP NP 
003519 R  D  L  R2 B  R  NP NP NP 
003520 Bi D2 L2 B2 D  NP NP NP NP 
003521 U  B2 Ui B2 Li Bi Di NP NP 
003522 Bi D2 Bi L  Bi D  NP NP NP 
003523 U  B2 Ui B  Di NP NP NP NP 
003524 Bi D2 L  Di B2 D2 NP NP NP 
003525 Fi Bi Di F  L  B2 NP NP NP 
003526 Bi D  B2 D2 NP NP NP NP NP 
003527 B  Li B2 L  Di NP NP NP NP 
003528 B2 Li Fi Bi Di F  NP NP NP 
003529 B2 L  B  L2 B2 Di NP NP NP 
003530 B  Ui Li U  B  L  NP NP NP 
003531 R  D  L  Ri Di B  D  NP NP 
003532 F  B2 Li Fi Bi Di NP NP NP 
003533 Bi D  B  L  D2 B  NP NP NP 
003534 U  B  Ui Li Bi Di B2 NP NP 
003535 Bi D  B  L  Di B  NP NP NP 
003536 B  Li B  Li Di L2 NP NP NP 
003537 Bi D  B  L  D  B  NP NP NP 
003538 B2 L  B2 D2 L2 B  Di NP NP 
003539 R  Di Ri Bi Li B2 D2 NP NP 
003540 Bi Ri B  R  B2 D  NP NP NP 
003541 Bi D  B  Li D2 L2 B  NP NP 
003542 B2 Li Bi Di NP NP NP NP NP 
003543 R  Di R2 B  R  D2 NP NP NP 
003544 U  B  Ui Li B  NP NP NP NP 
003545 B2 Li B  D2 B2 D  NP NP NP 
003546 R  Di Ri B  D2 NP NP NP NP 
003547 Bi D  B  L  B  NP NP NP NP 
003548 R  F  D2 Fi Ri B  Di NP NP 
003549 U  B2 Ui B2 L2 Bi NP NP NP 
003550 U  R2 D  R2 Bi Ui NP NP NP 
003551 Bi D2 Li B2 D2 NP NP NP NP 
003552 R  D2 L  Ri D  B  NP NP NP 
003553 B  L2 D2 B2 L2 NP NP NP NP 
003554 U  B2 Ui B2 Li Bi NP NP NP 
003555 B  L2 D  B2 L2 NP NP NP NP 
003556 Fi Bi Di F  B2 D  NP NP NP 
003557 R  D2 L  Ri D2 B  NP NP NP 
003558 Ui L2 Di L  U  Bi NP NP NP 
003559 Ri B2 R  Bi NP NP NP NP NP 
003560 B  L2 B  Di B  L2 NP NP NP 
003561 Ui L  U  L  D  L  D2 Bi NP 
003562 Bi D2 L2 D  B2 D  NP NP NP 
003563 B  L2 D2 Li B2 Li NP NP NP 
003564 B  Li B2 Ui L  U  NP NP NP 
003565 U  B2 Ui B  NP NP NP NP NP 
003566 R  D2 L  Di Ri B  NP NP NP 
003567 U  B2 Ui Ri B  R  NP NP NP 
003568 Bi D  B2 Di NP NP NP NP NP 
003569 B  Li B2 L  NP NP NP NP NP 
003570 U  B  Ui L2 B2 L2 Bi NP NP 
003571 B2 U  Bi Ui NP NP NP NP NP 
003572 B  Ui F  Li Fi U  L  NP NP 
003573 B2 U  Bi Ui Fi D  F  NP NP 
003574 U  B  Ui Bi D2 B2 NP NP NP 
003575 Bi D  Bi L2 Bi NP NP NP NP 
003576 B  L2 B2 D  L2 NP NP NP NP 
003577 Bi D  B  L2 Di B  NP NP NP 
003578 Bi D  Li D  Li B2 NP NP NP 
003579 B2 Di B  D  L2 Bi NP NP NP 
003580 B  L2 B2 D  L2 D  NP NP NP 
003581 B  Ui L2 U  B  L2 NP NP NP 
003582 R  D  L  Ri Bi L  B2 NP NP 
003583 B  L2 B2 D  L2 D2 NP NP NP 
003584 Bi D  Bi L2 Bi Di NP NP NP 
003585 Bi D  Li D2 Li B2 NP NP NP 
003586 U  B  Ui B  NP NP NP NP NP 
003587 Bi D2 L  Di L2 B2 NP NP NP 
003588 B  Ui Li U  L  NP NP NP NP 
003589 Bi D  B  L2 B  NP NP NP NP 
003590 B  Li B2 Li D  L2 NP NP NP 
003591 U  B2 Ui Li B2 L2 Bi NP NP 
003592 B  L  B2 L2 Bi L  NP NP NP 
003593 B  Li B  Li Bi L2 NP NP NP 
003594 B  Li B  L  D2 NP NP NP NP 
003595 B2 L  B  D  B2 NP NP NP NP 
003596 B2 L  B2 D2 B  NP NP NP NP 
003597 B2 L  B  D2 B2 NP NP NP NP 
003598 B2 L  B2 Di B  NP NP NP NP 
003599 B  Li B  L  Di NP NP NP NP 
003600 B  Li B  L  NP NP NP NP NP 
003601 R  D2 L2 Ri B  Di NP NP NP 
003602 B2 L2 B  Li B2 NP NP NP NP 
003603 B  Li B  L  D  NP NP NP NP 
003604 R  D2 L2 Ri B  NP NP NP NP 
003605 B2 L  B2 D2 B  Di NP NP NP 
003606 B2 L  Ui L2 U  Bi NP NP NP 
003607 U  B2 Ui L  B  NP NP NP NP 
003608 F2 Ri B  U2 R  F2 NP NP NP 
003609 Ri F  B  U2 Fi R  NP NP NP 
003610 B2 L  Bi NP NP NP NP NP NP 
003611 B  L  Bi L2 B2 L  NP NP NP 
003612 B  L2 D2 Bi L2 NP NP NP NP 
003613 B  Li Bi L  NP NP NP NP NP 
003614 B  U  B  Ui Bi NP NP NP NP 
003615 B2 L  B  Li B2 NP NP NP NP 
003616 U  Bi Ui Bi D2 B2 NP NP NP 
003617 B  L2 Di Bi L2 NP NP NP NP 
003618 B  L2 Bi D  L2 NP NP NP NP 
003619 Bi D  B  Di B  NP NP NP NP 
003620 Ri B  R  B2 D2 B2 NP NP NP 
003621 B  L  B2 L2 B  L  NP NP NP 
003622 B  L2 Bi D2 L2 NP NP NP NP 
003623 B  L2 Di Bi L2 D2 NP NP NP 
003624 B2 L  B  Li B2 Di NP NP NP 
003625 B  L2 Bi D  L2 D2 NP NP NP 
003626 B  L2 Di Bi L2 Di NP NP NP 
003627 Ri B  R  B  Li Bi NP NP NP 
003628 U  Bi Ui B  NP NP NP NP NP 
003629 B  L2 D2 L  Bi L  NP NP NP 
003630 Ri B  R  NP NP NP NP NP NP 
003631 U  Bi Ui B2 L  Bi NP NP NP 
003632 B  L2 Di L  Bi L  NP NP NP 
003633 B2 L  U  B  Ui B2 NP NP NP 
003634 Fi R  D2 Ri F  Di B  NP NP 
003635 R  D  L2 Ri B  NP NP NP NP 
003636 R  D  Ri B  D2 NP NP NP NP 
003637 R  D  Li Ri B  NP NP NP NP 
003638 U2 Fi R  D  F  U2 B  NP NP 
003639 R  D  Li Ri B  D  NP NP NP 
003640 B2 L  B2 L2 Di B  NP NP NP 
003641 R  D  Ri B  Di NP NP NP NP 
003642 R  D  Ri B  NP NP NP NP NP 
003643 R  D  Li Ri B  D2 NP NP NP 
003644 B2 L  B2 L2 Di B  D  NP NP 
003645 R  D  L  Ri B  NP NP NP NP 
003646 R  D  Li Ri B  Di NP NP NP 
003647 B2 L  B2 L2 Di B  D2 NP NP 
003648 Bi D  Li D2 L2 B2 NP NP NP 
003649 U  R  D  Ri Ui B  NP NP NP 
003650 B  Ui Li U  B2 L  NP NP NP 
003651 R  B  D2 Bi Di Ri B  NP NP 
003652 B  U2 Ri Ui R  Ui NP NP NP 
003653 U  B  Ui B  Li B2 L  NP NP 
003654 B  L2 F  L2 Fi L2 NP NP NP 
003655 B  L2 Di L2 NP NP NP NP NP 
003656 B  L  F  Li Fi NP NP NP NP 
003657 R  Bi Li B  Ri B  NP NP NP 
003658 B  L2 D  L2 Di NP NP NP NP 
003659 U2 Fi D  F  U2 B  NP NP NP 
003660 B  L2 D  L2 NP NP NP NP NP 
003661 Bi D2 L  D2 B2 NP NP NP NP 
003662 F  B  L  Fi D  Li NP NP NP 
003663 Ui Li D  L  U  B  NP NP NP 
003664 B  L2 D2 L2 NP NP NP NP NP 
003665 U2 Fi Di F  U2 B  NP NP NP 
003666 R  D  L  Di Ri B  NP NP NP 
003667 B  L2 D  L2 D2 NP NP NP NP 
003668 R2 Di L2 D  R2 B  NP NP NP 
003669 F  B  L  F2 Di F  Li NP NP 
003670 B  NP NP NP NP NP NP NP NP 
003671 B  L  Fi D  F2 Li Fi NP NP 
003672 U2 Fi D2 F  U2 B  NP NP NP 
003673 U2 L  D2 Li U2 B  NP NP NP 
003674 B  L  B2 L2 B2 L  NP NP NP 
003675 Bi D  Bi L  Bi NP NP NP NP 
003676 B2 L  B  L2 Di B2 NP NP NP 
003677 B2 Li B  Di L2 B2 NP NP NP 
003678 B  U2 Ri F  Ui R  Ui NP NP 
003679 B2 Li B  Di Li B2 NP NP NP 
003680 U  B  Ui B2 Li Bi NP NP NP 
003681 U  B2 Ui Li Bi Di B2 NP NP 
003682 U  B  Ui B2 Li Bi D  NP NP 
003683 R  Di Ri Bi D2 B2 NP NP NP 
003684 B  Li B  Ui L  U  NP NP NP 
003685 F2 Ri B  Ui R  F2 NP NP NP 
003686 Bi D  B2 L  Bi Li NP NP NP 
003687 R  Di Ri Bi D2 B2 D2 NP NP 
003688 Ri Ui Bi U  B  R  D  NP NP 
003689 U  B  Ui B2 Li Bi Di NP NP 
003690 U  R  U  Ri Ui Ri B  Ui NP 
003691 U  R  D  Ri B  Ui B  NP NP 
003692 B2 L  Bi Li Ui L  U  NP NP 
003693 Ri F  B  Ui Fi R  NP NP NP 
003694 U  B  Ui L2 B2 L  Bi NP NP 
003695 B2 Li B  Di B2 NP NP NP NP 
003696 B2 L  D  L  NP NP NP NP NP 
003697 Ui L  U  B2 D  L2 NP NP NP 
003698 Ui L  U  B2 L  B2 L  NP NP 
003699 B2 L  D  Li D2 L2 Di NP NP 
003700 Ui L  U  B2 L2 D2 NP NP NP 
003701 B2 L  D  B2 L  D2 NP NP NP 
003702 Ui L  U  B2 L2 Di NP NP NP 
003703 B2 L  D  B2 L  Di NP NP NP 
003704 B2 L  D  Li D2 L2 NP NP NP 
003705 B2 L  D  Li Di L2 NP NP NP 
003706 Ui L  U  B2 L2 NP NP NP NP 
003707 B2 L  D  B2 L  NP NP NP NP 
003708 B2 L  Di B2 D2 L  NP NP NP 
003709 B2 D2 L  Di L  NP NP NP NP 
003710 B2 L  D  B2 L  D  NP NP NP 
003711 B2 L  D  B  L  NP NP NP NP 
003712 Ui L  U  B2 D2 L2 NP NP NP 
003713 Ui L  U  B2 L  Bi L  NP NP 
003714 Ui L  U  B2 L  B  L  NP NP 
003715 B2 L  D  Bi L  NP NP NP NP 
003716 B2 Di L  B  D2 L  NP NP NP 
003717 U  Ri U  Fi R  U2 B  NP NP 
003718 U  B  U  F2 Di F2 U2 L  NP 
003719 B  U  B  U2 D  L  U  NP NP 
003720 B  Ui L  U  B  NP NP NP NP 
003721 U  B  U2 L2 U  L  D  NP NP 
003722 Fi U  R  Ui B2 Di F  NP NP 
003723 U  B  U2 L2 U  L  D2 NP NP 
003724 Bi D  Bi L2 D  L  NP NP NP 
003725 B  Ui L  U  B  D  NP NP NP 
003726 B  Ui L  U  B  D2 NP NP NP 
003727 B  Ui L  U  Di B  NP NP NP 
003728 Bi U  D  B  Ui Li NP NP NP 
003729 Ri F  U  Fi R  B2 NP NP NP 
003730 U  B  U2 L2 U  L  NP NP NP 
003731 Bi U  D  B  Ui Li D  NP NP 
003732 B  Ui L  U  Bi D2 B2 NP NP 
003733 Bi D2 B2 Di Li Di Bi NP NP 
003734 Bi U  R  D  Ri Ui Li Bi NP 
003735 Ui L  U  Bi Li D  Li NP NP 
003736 Bi U  D  B  Ui B  Li NP NP 
003737 B  Ui L  U  D2 B  NP NP NP 
003738 B2 L2 Ui D  L  U  NP NP NP 
003739 B2 Ui L2 U  D  L  NP NP NP 
003740 Ui L  U  L2 B2 Li B2 NP NP 
003741 R2 F2 Ui L  F2 R2 B2 NP NP 
003742 B2 D  Li Di L2 D  NP NP NP 
003743 B2 L2 D  L  NP NP NP NP NP 
003744 B2 D  Li D2 L2 D2 NP NP NP 
003745 B2 Di L2 Bi D2 L  NP NP NP 
003746 B  Li B  Di Li Bi NP NP NP 
003747 U  R  B2 D2 Ri Ui NP NP NP 
003748 B2 D  Li D  L2 Di NP NP NP 
003749 B2 L2 D  Li B2 L2 NP NP NP 
003750 U  Fi R  F  Ui D2 B2 NP NP 
003751 U  B2 U2 Li U  NP NP NP NP 
003752 Ui Li U  Di L  B2 Li NP NP 
003753 Ui L  U  B  D  Li B  Li NP 
003754 B2 Ui L2 U  D  B  L  NP NP 
003755 U  R  B2 Di Ri Ui Di NP NP 
003756 U  Fi R  F  B2 Ui D2 NP NP 
003757 B  U  Bi Ui B  Li NP NP NP 
003758 Ui L  U  Li B2 Li NP NP NP 
003759 Bi D  Bi D  L  Di NP NP NP 
003760 B  Li Bi Di L  Bi D  NP NP 
003761 Bi D2 B2 Li Di Bi NP NP NP 
003762 B  Li B2 Di Bi D2 NP NP NP 
003763 B2 D  B  L  D  NP NP NP NP 
003764 Ui L  U  L2 Bi L  D  B  NP 
003765 B2 D2 B  Di L  D2 NP NP NP 
003766 Ui Li U  Bi L2 D  B  NP NP 
003767 Bi D  Li Bi D  L  NP NP NP 
003768 Bi R  D2 Ri B2 Di Bi NP NP 
003769 Bi R  D  Ri Bi NP NP NP NP 
003770 B  Ui L  U  L  B  NP NP NP 
003771 Ri F  U  Fi L  R  B2 NP NP 
003772 Ui Li U  Bi D  B  NP NP NP 
003773 Ui L  U2 B  Ui L2 NP NP NP 
003774 Ui L  U  B  Ui L2 U  NP NP 
003775 Bi R  D  R2 B2 R  B  NP NP 
003776 Ri Bi R  Bi D  Bi NP NP NP 
003777 Ui L  U  Bi L2 D  NP NP NP 
003778 B  Ui L  U  Bi L  B2 NP NP 
003779 B  Li Bi Di Bi D  NP NP NP 
003780 B2 Li D2 B2 Di L  NP NP NP 
003781 B2 Ui L2 U  D  L  D  NP NP 
003782 B2 Li Di L  D2 L  NP NP NP 
003783 Ui L  U  B2 Li D  Li NP NP 
003784 U  B2 U2 Li U  D  NP NP NP 
003785 Ui Li U  Di R  Di Ri NP NP 
003786 B2 D  Li Di L2 D2 NP NP NP 
003787 B2 Li D  L  NP NP NP NP NP 
003788 R2 F2 Ui Li Ui F2 R2 NP NP 
003789 U  Fi R  F  Ui B2 Di NP NP 
003790 F  B2 Li Fi D  L  NP NP NP 
003791 U2 F2 Ri U  F2 U  Li NP NP 
003792 U  Fi R  F  Ui Di B2 NP NP 
003793 B2 D  Li D  L2 NP NP NP NP 
003794 B2 L2 D  Li B2 L2 D  NP NP 
003795 B2 L  D  B  L2 D  Li NP NP 
003796 Ri B2 R2 Di Ri B2 NP NP NP 
003797 U  R  B2 Di Ri Ui NP NP NP 
003798 U  Fi R  F  B2 Ui Di NP NP 
003799 B2 Li D2 B  Di L  NP NP NP 
003800 Ui Li U  R  Di Ri NP NP NP 
003801 Bi D  Bi D  L  NP NP NP NP 
003802 B2 Di B  D2 B  L  NP NP NP 
003803 Bi U  D2 B  Ui Li NP NP NP 
003804 Bi R  D  Ri B2 D  B  NP NP 
003805 R2 Ui Li F  U  R2 NP NP NP 
003806 U  B  Ui B2 L2 D  L  NP NP 
003807 B2 D  B  L  D2 NP NP NP NP 
003808 Ui L2 U  D2 Bi D2 L  NP NP 
003809 B  Li B2 Di Bi Di NP NP NP 
003810 B2 Di B  D2 Bi L  NP NP NP 
003811 B2 D2 B  Di L  Di NP NP NP 
003812 Bi D  Bi D  B2 L  NP NP NP 
003813 B  U  Bi Ui B2 D2 Li NP NP 
003814 U  Bi U2 D2 Li U  NP NP NP 
003815 R2 Ui L2 F  U  L  R2 NP NP 
003816 Bi D  Bi D  B  L  NP NP NP 
003817 B2 Di B  D2 B2 L  NP NP NP 
003818 R2 Ui F  Li U  R2 NP NP NP 
003819 Ui L  U  Bi L2 D2 NP NP NP 
003820 Bi D  Bi D  Bi L  NP NP NP 
003821 B2 Di B  D2 L  NP NP NP NP 
003822 U  R  U2 L  F2 U  B2 NP NP 
003823 B2 Di Li B2 D2 L  NP NP NP 
003824 R  Di Ri B2 D  L  NP NP NP 
003825 U  R  B2 D2 Ri Ui D2 NP NP 
003826 B2 D  Li D  L2 D  NP NP NP 
003827 B2 L2 D  Li B2 L2 D2 NP NP 
003828 U  B2 U2 Li U  D2 NP NP NP 
003829 B  Li Di Ri Bi R  NP NP NP 
003830 B2 Di Li D2 F  L  Fi NP NP 
003831 B2 D  Li D2 Li B2 Li NP NP 
003832 F2 U  R  Ui F2 B2 NP NP NP 
003833 B2 L2 D  L  D2 NP NP NP NP 
003834 U  Fi R  F  Ui B2 NP NP NP 
003835 B2 D  Li D2 L2 NP NP NP NP 
003836 B2 Di L2 Bi D2 L  D2 NP NP 
003837 U2 F2 R  F2 U  Li U  NP NP 
003838 F2 U  R  U  B2 U2 F2 NP NP 
003839 Ri U  Ri Ui R2 B2 NP NP NP 
003840 U  Fi R  F  B2 Ui NP NP NP 
003841 U2 F2 D  R  F2 U2 L2 NP NP 
003842 B2 Di Li B  D2 L  NP NP NP 
003843 Bi D  Bi D  L  D  NP NP NP 
003844 Bi D2 L  Bi D  L  NP NP NP 
003845 Bi D2 Bi L2 D  L  NP NP NP 
003846 B  Li B  Di B  Di B2 NP NP 
003847 Bi R  D  Ri Bi D2 NP NP NP 
003848 Ui Li U  Bi Di L2 B  NP NP 
003849 Bi D2 Bi D  L  NP NP NP NP 
003850 Ui L  U2 B  Ui L2 D2 NP NP 
003851 B  L2 Di L  B2 Di Bi NP NP 
003852 B  Li B2 Di Bi NP NP NP NP 
003853 B2 D  B  L  Di NP NP NP NP 
003854 Ui L  U  L2 Bi Di B  NP NP 
003855 B2 L2 Fi D  F  L  NP NP NP 
003856 B2 D2 B  Di L  NP NP NP NP 
003857 R2 U  Fi U2 Li U  R2 NP NP 
003858 Fi R2 Fi Ui R2 F2 Li NP NP 
003859 B  Li B2 D2 Bi D  Bi NP NP 
003860 R2 Ui F  Li U  R2 D  NP NP 
003861 Ui L  U  Bi L2 Di NP NP NP 
003862 B2 L  Bi Li B  Di Bi NP NP 
003863 B  Li Bi Di Bi Di NP NP NP 
003864 Ui Li U  Bi D  L  B  NP NP 
003865 B2 Ui L2 U  D  L  Di NP NP 
003866 B2 Li D  Li D2 L2 NP NP NP 
003867 U  Fi R  F  Ui B2 D  NP NP 
003868 U  R  B2 D  Ri Ui NP NP NP 
003869 Ri F  Ui Fi R  B2 Li NP NP 
003870 B2 D  Li D  L2 D2 NP NP NP 
003871 B2 L  D  B2 L2 Di Li NP NP 
003872 U  R  B2 D2 Ri Ui Di NP NP 
003873 U  R  Di B2 D2 Ri Ui NP NP 
003874 U  B2 U2 Li U  Di NP NP NP 
003875 B  Li Di Ri Bi R  D  NP NP 
003876 U  Fi Ri F  D2 B  Ui B2 NP 
003877 B2 D  Li Di L2 NP NP NP NP 
003878 B2 L2 D  L  Di NP NP NP NP 
003879 B2 L  D  B  L2 Di Li NP NP 
003880 Ri B2 R2 D  L  Ri NP NP NP 
003881 U  R  B2 Di Ri Ui D2 NP NP 
003882 U  Fi R  F  B2 Ui D  NP NP 
003883 B  U  Bi Ui B  Li Di NP NP 
003884 Ui L  U  Li B2 Li Di NP NP 
003885 Bi D  Bi D  L  D2 NP NP NP 
003886 B  Li Bi Di L  Bi NP NP NP 
003887 Bi U  D2 B  Ui Li D2 NP NP 
003888 B  Li Bi Di L2 Bi NP NP NP 
003889 U  Bi U2 L  U  L2 NP NP NP 
003890 Ui Li U  Di L  Bi Li NP NP 
003891 Bi R  D  Ri Bi Di NP NP NP 
003892 B2 Di Bi D2 B2 L  NP NP NP 
003893 B2 D  F  B  L  Fi NP NP NP 
003894 B2 D  Bi L2 B2 Li NP NP NP 
003895 Ri Bi R  D  Bi NP NP NP NP 
003896 Ui L  U2 Bi Ui L2 NP NP NP 
003897 B  U  Bi Ui B2 Li NP NP NP 
003898 B2 D  B  L  NP NP NP NP NP 
003899 B  L2 D2 L  Bi Di Bi NP NP 
003900 Ui L  U  B  D  B2 L2 NP NP 
003901 Ui L  U  B2 D2 B  L2 NP NP 
003902 B  Li Bi Di Li Bi NP NP NP 
003903 Ui L  U  Bi L2 NP NP NP NP 
003904 Ui Li D  Li U  Bi L  NP NP 
003905 B  Li Bi Di Bi NP NP NP NP 
003906 Ui L  U  Bi D  B2 L2 NP NP 
003907 R2 Ui Li Fi U  R2 NP NP NP 
003908 Ui L  U2 B  U2 L2 U  NP NP 
003909 B  Li Bi L2 U  B  Ui NP NP 
003910 U  B  U2 Li U  D  NP NP NP 
003911 Bi D  Bi L  D  L  NP NP NP 
003912 U  B  U2 Li U  D2 NP NP NP 
003913 U  B  Ui B2 Li D  L  NP NP 
003914 B  Ui L  U  D  Li B  NP NP 
003915 U  Bi R  B2 D2 Ri Ui NP NP 
003916 U  B  U2 Li U  Di NP NP NP 
003917 Ri Ui L2 B  U  L  R  NP NP 
003918 U  Fi B  R  F  Ui B2 NP NP 
003919 U  B  U2 Li U  NP NP NP NP 
003920 Bi D  Bi L  D  L  Di NP NP 
003921 Bi D2 B2 Li Di L2 Bi NP NP 
003922 U  L  B  U2 L  U2 L2 Ui NP 
003923 U  Bi R  B2 Di Ri Ui NP NP 
003924 Ui L  U  Bi D  L2 NP NP NP 
003925 B2 U  R  Di B  Ri B2 Ui NP 
003926 U  B2 R  Bi Ri Ui Bi NP NP 
003927 B2 D  L  Fi D  F  NP NP NP 
003928 B2 D  L2 B2 D2 Li NP NP NP 
003929 Fi B2 D  F2 L  Fi NP NP NP 
003930 R2 F2 Ui Li F2 R2 NP NP NP 
003931 B2 D  L  D  NP NP NP NP NP 
003932 B2 D  L  Fi D2 F  NP NP NP 
003933 B2 D  L  D2 NP NP NP NP NP 
003934 F  Di B2 D  Fi L  NP NP NP 
003935 B2 D  F  L  Fi NP NP NP NP 
003936 B2 D  L2 B2 Li NP NP NP NP 
003937 B2 D  L  Di NP NP NP NP NP 
003938 B2 L  R  Di Ri B2 NP NP NP 
003939 B2 D  L2 B2 Li D  NP NP NP 
003940 B2 D  L  NP NP NP NP NP NP 
003941 B2 L  R  Di Ri B2 D  NP NP 
003942 Ui L  U  B  L  B  L  NP NP 
003943 B2 D  L  D  B2 D2 B2 NP NP 
003944 Ri B2 R  D  B2 L  NP NP NP 
003945 U  Fi R  F  D  B2 Ui NP NP 
003946 B2 L2 Bi Li Di Bi NP NP NP 
003947 B2 D  L2 Bi Li NP NP NP NP 
003948 U2 F  U  Fi U  Li NP NP NP 
003949 B2 Di B2 D2 L  NP NP NP NP 
003950 Ui L  U  L  Ui L  U  NP NP 
003951 Ui L2 Fi L  F  U  NP NP NP 
003952 Ui L  U  L2 NP NP NP NP NP 
003953 Ui Li U  Fi D2 F  NP NP NP 
003954 Ui Li U  D2 NP NP NP NP NP 
003955 Ui L  U  Li D2 Li NP NP NP 
003956 Ui L2 U  F  L  Fi NP NP NP 
003957 B2 Di B2 L2 D2 L  NP NP NP 
003958 Ui Li U  Di NP NP NP NP NP 
003959 Ui L  U  Li Di Li NP NP NP 
003960 U  Fi B2 R  F  Ui B2 NP NP 
003961 Ui Li U  NP NP NP NP NP NP 
003962 Ui L  U  Li D2 Li D2 NP NP 
003963 Ui Li Fi D  F  U  NP NP NP 
003964 Ui Li F2 D2 F2 U  NP NP NP 
003965 U2 L  Di Li U  Li U  NP NP 
003966 R2 Ui Li U  R2 NP NP NP NP 
003967 Ui Li D  L2 U  L2 NP NP NP 
003968 B  L2 Di L  Di Bi NP NP NP 
003969 Bi D  B  L  B2 D  L  NP NP 
003970 U  B  R  Bi Ri Ui L  Bi NP 
003971 Bi R  D  Ri B  L  B2 NP NP 
003972 F2 U  R  Ui F2 B  D  B  NP 
003973 B2 Li Di L2 B  D2 L  NP NP 
003974 F2 Ri Ui R  F2 Bi Li NP NP 
003975 B  Ui Li U  Bi Di Bi NP NP 
003976 R2 U  Fi R  B2 Ui R  D2 NP 
003977 R2 U  Fi R  Ui B2 R  NP NP 
003978 B  Ui L  U  Bi L2 B2 NP NP 
003979 U  Fi Ri F  Ui D2 Bi NP NP 
003980 R2 U  Fi R  Ui Li B2 R  NP 
003981 R2 U  R  Bi Ui R  Bi NP NP 
003982 B2 Li Di B  D2 L  NP NP NP 
003983 R2 U  Fi R  B2 Ui R  NP NP 
003984 Bi Ri B  Ui B  U  R  NP NP 
003985 Ri B2 R2 D  L2 Ri B  Li NP 
003986 U  B  R  B2 Di Ri Ui NP NP 
003987 U  B2 U2 L  U  Bi L2 NP NP 
003988 B2 L  Bi U  Bi Ui Li NP NP 
003989 U  Ri U  R  U2 Bi Li NP NP 
003990 Ui L  U  B  L2 NP NP NP NP 
003991 Ui L  U  Li B  D2 Li NP NP 
003992 Ri B  R  B  D  L  NP NP NP 
003993 Ri Bi R  B2 D  Bi NP NP NP 
003994 B2 D  Bi L  D  NP NP NP NP 
003995 B  U  Bi Ui Li D2 NP NP NP 
003996 B2 D  Bi L  D2 NP NP NP NP 
003997 B2 Di Bi D2 L  NP NP NP NP 
003998 B  Li B  Di Bi NP NP NP NP 
003999 Ui L  U  Li B  Li NP NP NP 
004000 B2 D  Bi L  Di NP NP NP NP 
004001 B  U  Bi Ui Li NP NP NP NP 
004002 B  Li B  Di Bi D2 NP NP NP 
004003 B2 D  Bi L  NP NP NP NP NP 
004004 B  U  Bi Ui Li D  NP NP NP 
004005 Ui L  U  B  D  L2 NP NP NP 
004006 B2 Di B2 D2 B  L  NP NP NP 
004007 Ui L  U  Bi L  B2 L  NP NP 
004008 Ui Li U  Di L  B  Li NP NP 
004009 Ui L  U  Li Di B  Li NP NP 
004010 B2 Di B  Ri B2 R  NP NP NP 
004011 B2 L2 B2 Ui Li U  NP NP NP 
004012 B2 D  Li Ui L2 U  NP NP NP 
004013 F2 Ri Ui R  F2 D2 Li NP NP 
004014 F2 Ri Ui R  F2 D  Li NP NP 
004015 U  B2 U2 L  U  L2 NP NP NP 
004016 R2 Ui F2 Li U  R2 Di NP NP 
004017 B2 Ui D  L  U  D2 NP NP NP 
004018 R2 Ui F2 Li U  R2 NP NP NP 
004019 R2 U  R  U2 B2 U  R  NP NP 
004020 U  B2 R  B2 D2 Ri Ui NP NP 
004021 F2 Ri Ui R  F2 Li NP NP NP 
004022 Ri Ui R2 Di Li F2 Ri NP NP 
004023 U  Fi R  F  Ui D  B2 NP NP 
004024 B2 Ui D  L  U  NP NP NP NP 
004025 R2 U  R  Ui R  D2 L  NP NP 
004026 R  D  L  Ri B2 D  L  NP NP 
004027 U  L  B2 U2 L  U2 L2 Ui NP 
004028 U  B2 R  B2 Di Ri Ui NP NP 
004029 Ri F  Ui Fi Li R  NP NP NP 
004030 Ri Ui R2 Di Li F2 D  Ri NP 
004031 R  D  Ri B2 D  L  NP NP NP 
004032 F2 R2 Ui F  R2 F  NP NP NP 
004033 Ui L  U  B  L  B  L2 NP NP 
004034 Ui L2 Di L  U  D  B2 L2 NP 
004035 B2 D  L2 B2 D2 NP NP NP NP 
004036 B2 D  L  D2 L  Di NP NP NP 
004037 B2 D  L2 B  D  NP NP NP NP 
004038 B2 D  L  D2 L  NP NP NP NP 
004039 B2 D  L2 B  D2 NP NP NP NP 
004040 B2 D  L2 B2 Di NP NP NP NP 
004041 B2 D  L2 B2 NP NP NP NP NP 
004042 B2 D  L  Di L  NP NP NP NP 
004043 B2 D  L2 B  Di NP NP NP NP 
004044 B2 D  L2 B2 D  NP NP NP NP 
004045 B2 D  L  D2 L  D2 NP NP NP 
004046 B2 D  L2 B  NP NP NP NP NP 
004047 B2 D  L2 NP NP NP NP NP NP 
004048 B2 D  L  Di L  B2 NP NP NP 
004049 B2 L2 Bi U  Bi Ui NP NP NP 
004050 B2 D  L  Di L  B  NP NP NP 
004051 B2 D  L2 B  Di B  NP NP NP 
004052 B2 D  L2 Bi NP NP NP NP NP 
004053 B  Ui Fi Di L2 F  Li U  NP 
004054 Ui Li U  Di L2 Bi D  Li NP 
004055 Ui L  U  Bi Di Bi D2 Li NP 
004056 B2 Li Di Bi D2 L2 NP NP NP 
004057 Ui L  U2 Bi Ui D  Li NP NP 
004058 Ui L  U  Bi D  B2 Li NP NP 
004059 U  B  U2 Li U  D2 L  NP NP 
004060 U  B  Ui B2 Li D  L2 NP NP 
004061 F  Ri U  R  B2 L  Fi NP NP 
004062 U  B  U2 Li U  L  B2 NP NP 
004063 U  B  U2 Li U  Di L  NP NP 
004064 B  U  Bi U2 L  U  NP NP NP 
004065 Bi D  Bi L  D  L2 NP NP NP 
004066 B  U  Bi U2 L  U  Bi NP NP 
004067 U  B  U2 Li U  L  B  NP NP 
004068 U  B  U2 Li U  L  NP NP NP 
004069 Ui L  U  Bi D  Li B  NP NP 
004070 B  U  Bi U2 L  U  B2 NP NP 
004071 Ui L  U  Bi D  Li NP NP NP 
004072 B  U  Bi U2 L  U  B  NP NP 
004073 U  B  U2 Li U  L  Bi NP NP 
004074 Ui L  U  B2 L  Bi L2 NP NP 
004075 B2 L  D  B  L2 NP NP NP NP 
004076 Ui L  U  B2 D2 Li NP NP NP 
004077 Ui L  U  B2 D  Li NP NP NP 
004078 Ui L  U  B2 L  B2 L2 NP NP 
004079 B2 L  D  L2 NP NP NP NP NP 
004080 Ui L  U  B2 Di Li NP NP NP 
004081 B2 L  D2 B2 Di L2 NP NP NP 
004082 B2 L  D  Li D2 Li NP NP NP 
004083 B2 L  D  Li Di Li NP NP NP 
004084 Ui L  U  B2 Li NP NP NP NP 
004085 B2 L  D  B2 L2 NP NP NP NP 
004086 Ui L  U  B2 Li Bi NP NP NP 
004087 B2 L  D  B2 L2 Bi NP NP NP 
004088 B2 D2 L  Di L2 B  NP NP NP 
004089 B2 D2 L  Di L2 NP NP NP NP 
004090 Ui L  U  B2 Li B2 NP NP NP 
004091 B2 L  D  B2 L2 B2 NP NP NP 
004092 Ui L  U  B2 Li B  NP NP NP 
004093 B2 L  D  Bi L2 NP NP NP NP 
004094 B2 D2 L  Di L2 Bi NP NP NP 
004095 B  Ui Fi Di L2 F  U  NP NP 
004096 Fi R2 Fi Ui R2 F2 D2 NP NP 
004097 B  U  R2 D2 R2 Bi Ui NP NP 
004098 Ui Li U  Di L  Bi D  NP NP 
004099 Ui L  U  Li Di Bi D  NP NP 
004100 Ui L  U  L  Bi L2 D  NP NP 
004101 Ui L  U  Bi Li D2 Bi Di NP 
004102 Bi D  Bi L2 D  L2 NP NP NP 
004103 R2 F2 Ui F2 R2 Bi D  NP NP 
004104 B2 D  B  L2 D  B2 NP NP NP 
004105 Ui L  U  Bi Li D  Bi NP NP 
004106 Bi U  D  B  Ui NP NP NP NP 
004107 B2 D  Bi L2 B2 D  NP NP NP 
004108 R2 Fi Ui F  R2 D2 NP NP NP 
004109 B2 D  B  L2 D  B  NP NP NP 
004110 B2 D  B  L2 D  NP NP NP NP 
004111 Ui L  U  Bi Li D  B  NP NP 
004112 B  U  Bi Ui B2 D  NP NP NP 
004113 Ui L  U  Bi Li D  NP NP NP 
004114 Bi U  D  B  Ui B  NP NP NP 
004115 Ui L2 U  L2 Bi D  NP NP NP 
004116 U  R  B2 Di Ri Ui L  NP NP 
004117 B2 L  D  B  L2 D  NP NP NP 
004118 Ui L  U  B2 D2 Li D  NP NP 
004119 U  Ri U  R  U2 B2 D2 NP NP 
004120 B2 Li Di L  D2 L2 NP NP NP 
004121 B2 Li D2 B2 Di L2 NP NP NP 
004122 R  F2 Di L2 R  Ui R2 NP NP 
004123 B2 Li D  L2 NP NP NP NP NP 
004124 Ui L  U  B2 D  Li D  NP NP 
004125 B2 D  Li D  Li B2 NP NP NP 
004126 F  B2 Li Fi D  L2 NP NP NP 
004127 U2 F2 Ri U  F2 U  NP NP NP 
004128 R2 F2 Ui F2 Ri Di Ri NP NP 
004129 Ui L  U  B2 Li D  NP NP NP 
004130 B2 L  D  B2 L2 D  NP NP NP 
004131 B2 D  Li D  Li NP NP NP NP 
004132 Ui L  U  B2 Li B2 D  NP NP 
004133 Ui L  U  B2 Li D  Bi NP NP 
004134 Ui L  U  Li R  Di Ri NP NP 
004135 B2 L  D  Bi L2 D  NP NP NP 
004136 R2 F2 Li Ui F2 R2 NP NP NP 
004137 Ui L  U2 Bi Ui D2 Li NP NP 
004138 Bi D  Bi D  B  L2 NP NP NP 
004139 Fi B2 D  F2 L2 Fi NP NP NP 
004140 B2 D  Bi L2 B2 D2 NP NP NP 
004141 Bi U  D2 B  Ui NP NP NP NP 
004142 Bi D  Bi D  L2 NP NP NP NP 
004143 B2 D  B  L  D2 L  NP NP NP 
004144 Ui L  U  L  Bi L2 D2 NP NP 
004145 Ui Li U  Di L  Bi D2 NP NP 
004146 B2 D  F  L2 Fi B  NP NP NP 
004147 Ui L  U  Bi Li D2 Bi NP NP 
004148 Bi D  Bi D  B2 L2 NP NP NP 
004149 U  B  Ui B2 L2 D  L2 NP NP 
004150 Bi D2 Li U  B  Ui NP NP NP 
004151 B2 D  F  L2 Fi NP NP NP NP 
004152 B2 D  B  L2 D2 NP NP NP NP 
004153 Ui L  U  Bi Li D2 B  NP NP 
004154 B  U  Bi Ui B2 D2 NP NP NP 
004155 Ui L  U  Bi Li D2 NP NP NP 
004156 Bi D  Bi D  Bi L2 NP NP NP 
004157 B2 Di B  D2 L2 NP NP NP NP 
004158 Ri U  Ri Ui R2 B2 L  NP NP 
004159 R2 F2 Ui Ri F2 Ri NP NP NP 
004160 Ui L  U  B2 D2 Li D2 NP NP 
004161 B2 Di Li B2 D2 L2 NP NP NP 
004162 Ui L  U  B2 Li D2 NP NP NP 
004163 B2 L  D  B2 L2 D2 NP NP NP 
004164 U  B2 U2 Li U  D2 L  NP NP 
004165 U2 F2 R  U  F2 U  NP NP NP 
004166 U  Ri U  R  U2 B2 Di NP NP 
004167 B2 D  Li D2 Li B2 NP NP NP 
004168 F2 U  R  Ui F2 B2 L  NP NP 
004169 B2 L  D  L2 D2 NP NP NP NP 
004170 B2 L  D  Li D2 Li D2 NP NP 
004171 B2 L  D  L2 D2 Bi NP NP NP 
004172 B2 D  Li D2 Li B  NP NP NP 
004173 B2 D  Li D2 Li NP NP NP NP 
004174 Ui L  U  B2 Li B2 D2 NP NP 
004175 B2 L  D  L2 D2 B2 NP NP NP 
004176 U  Fi R  F  B2 Ui L  NP NP 
004177 B2 L  D  L2 D2 B  NP NP NP 
004178 B2 D  Li D2 Li Bi NP NP NP 
004179 Bi D2 L2 Bi D  B2 L2 NP NP 
004180 F2 Ri Ui Bi R  F2 NP NP NP 
004181 Fi B2 D  F2 L2 Fi D  NP NP 
004182 Bi D2 L  Bi D  L2 NP NP NP 
004183 Bi D2 Bi L2 D  L2 NP NP NP 
004184 Bi U  D  B  Ui D2 NP NP NP 
004185 R2 Fi Ui F  R2 NP NP NP NP 
004186 Bi D  Bi D  L2 D  NP NP NP 
004187 B2 D  Bi L2 B2 Di NP NP NP 
004188 B  Li B2 Di Bi L  NP NP NP 
004189 B2 D  B  L  Di L  NP NP NP 
004190 Ui L  U  L  Bi L2 Di NP NP 
004191 Ui L  U  Bi Li Di B2 NP NP 
004192 B  U  Bi Ui B2 Di B  NP NP 
004193 B2 D  B  L2 Di B  NP NP NP 
004194 B2 D  B  L2 Di NP NP NP NP 
004195 Ui L  U  Bi Li Di B  NP NP 
004196 B  U  Bi Ui B2 Di NP NP NP 
004197 Ui L  U  Bi Li Di NP NP NP 
004198 B  U  Bi Ui B2 Di Bi NP NP 
004199 Ui L2 U  L2 Bi Di NP NP NP 
004200 B2 L  D  L2 Fi Di F  NP NP 
004201 B2 L  D  B  L2 Di NP NP NP 
004202 Ri B2 R2 D  L2 Ri NP NP NP 
004203 B  U  R  D2 Bi Ri Ui NP NP 
004204 B2 Li D  Li D2 Li NP NP NP 
004205 Ui L  U  Li R  D  Ri NP NP 
004206 Ui L  U  B2 Li Di NP NP NP 
004207 B2 L  D  B2 L2 Di NP NP NP 
004208 Ri Ui R2 Di F2 Ri B2 NP NP 
004209 U  Ri U  R  U2 B2 NP NP NP 
004210 U  B2 U2 L  U  B2 Li NP NP 
004211 U2 F2 R  U  F2 U  D  NP NP 
004212 Ri F  Ui Fi R  B2 NP NP NP 
004213 B2 L  D2 B  L2 Di L2 NP NP 
004214 B2 L  U  B2 Ui NP NP NP NP 
004215 B2 D  Li Di Li NP NP NP NP 
004216 F2 Ri Ui R  F2 B2 NP NP NP 
004217 B2 L  U  Ri B2 R  Ui NP NP 
004218 Ri F  Ui Fi B2 R  NP NP NP 
004219 B2 L  D  Bi L2 Di NP NP NP 
004220 U  B  Ri U  R  U2 Bi NP NP 
004221 Ui Li U  Di Li Bi L2 NP NP 
004222 Ui L  U  B  D  Li B2 NP NP 
004223 Ui L  U  B2 D2 B  Li NP NP 
004224 R2 F2 Ui F2 R2 Bi NP NP NP 
004225 Ui Li U  D2 L  Di Bi NP NP 
004226 U2 F  U  Fi U  Bi NP NP NP 
004227 Ui Li U  D2 L  Bi NP NP NP 
004228 Ui L  U  Li D2 Bi NP NP NP 
004229 B2 L2 D  L2 D2 B  NP NP NP 
004230 B2 D  Bi L2 B2 NP NP NP NP 
004231 B2 L2 D  L2 B  NP NP NP NP 
004232 Ui L  U2 Bi Ui Li NP NP NP 
004233 Ui Li U  Di L  Bi NP NP NP 
004234 Ui L  U  Li Di Bi NP NP NP 
004235 U  Bi U2 L  U  Li NP NP NP 
004236 B2 D  B  L2 NP NP NP NP NP 
004237 U2 F  U  Fi L  U  Bi NP NP 
004238 B  U  Bi Ui B2 NP NP NP NP 
004239 Ui L  U  Bi Li NP NP NP NP 
004240 Ui Li D  Li U  Bi L2 NP NP 
004241 Ui L2 U  L2 Bi NP NP NP NP 
004242 B2 L2 D  Li B2 D2 Li NP NP 
004243 Ui L  U  B  D  Li B  NP NP 
004244 B2 Ui L2 U  D  B  L2 NP NP 
004245 B2 L2 D  L2 D  NP NP NP NP 
004246 Ui L  U  Bi Li Bi D2 NP NP 
004247 U2 F  U  Fi U  B2 NP NP NP 
004248 Ui Li U  D2 L  B2 NP NP NP 
004249 Ui L  U  Li D2 B2 NP NP NP 
004250 B2 L2 D  L2 D2 NP NP NP NP 
004251 Ui L2 U  L2 B2 NP NP NP NP 
004252 Ui L  U  Bi Li Bi NP NP NP 
004253 B2 U  L  B2 Li Ui NP NP NP 
004254 B2 L2 D  L2 NP NP NP NP NP 
004255 U2 F  Ui B2 U2 Fi U  NP NP 
004256 B2 D  Bi L2 B  NP NP NP NP 
004257 B2 D2 L2 Di L2 NP NP NP NP 
004258 Ui Li U  Di L  B2 NP NP NP 
004259 Ui L  U  Li Di B2 NP NP NP 
004260 F2 R2 Di F2 L2 Ui NP NP NP 
004261 B  U  Bi Ui B  NP NP NP NP 
004262 Ui L  U  Li B2 NP NP NP NP 
004263 Ri Bi R  Bi D  Bi L  NP NP 
004264 B2 L  D  B  L2 Di Bi NP NP 
004265 Ri B2 R2 D  L2 Ri Bi NP NP 
004266 Bi D  Li Bi D  L2 Di NP NP 
004267 B  U  Bi U2 D  Li U  NP NP 
004268 U  Ri U  R  U2 B  D  NP NP 
004269 Ui L  U  B2 Li Di Bi NP NP 
004270 U  Ri U  R  U2 B  D2 NP NP 
004271 Bi D  Li Bi D  L2 NP NP NP 
004272 U  B  Ri U  R  U2 B2 NP NP 
004273 B2 Li Fi D  F  L2 NP NP NP 
004274 B  U  Bi U2 Li U  NP NP NP 
004275 Bi D  Li Bi D  L2 D2 NP NP 
004276 B2 L  Bi U  Bi Ui B2 NP NP 
004277 U  Ri U  R  U2 B  NP NP NP 
004278 F2 Ri Ui B  R  F2 NP NP NP 
004279 Ui L  U2 B  Ui Li NP NP NP 
004280 Bi D  Li D2 Bi D  L2 NP NP 
004281 F2 Ri Ui R  F2 B  NP NP NP 
004282 U2 F2 Ui Ri U2 F2 U  B  NP 
004283 B2 D  Li Di Li Bi NP NP NP 
004284 R2 F  U  L2 U2 Fi R2 NP NP 
004285 R2 F  Li Ui Fi R2 NP NP NP 
004286 Ui L  U  L  F  L2 Fi NP NP 
004287 R2 F2 Ui F2 R2 NP NP NP NP 
004288 Ui Li U  D2 L  Di NP NP NP 
004289 Ui L  U  Li D  NP NP NP NP 
004290 Ui Li U  D2 L  NP NP NP NP 
004291 Ui L  U  Li D2 NP NP NP NP 
004292 R2 F2 Ui F2 R2 D  NP NP NP 
004293 R2 F2 Ui F2 R2 D2 NP NP NP 
004294 Ui Li U  Di L  NP NP NP NP 
004295 Ui L  U  Li Di NP NP NP NP 
004296 U2 F  U  Fi L  U  NP NP NP 
004297 B  U  Bi Ui Bi NP NP NP NP 
004298 Ui L  U  Li NP NP NP NP NP 
004299 Ui L2 U  L2 NP NP NP NP NP 
004300 Ui L  U  Bi Li B  NP NP NP 
004301 U2 F  U  Fi Di L2 U  NP NP 
004302 F2 R  Ui Ri F2 NP NP NP NP 
004303 Ui Li D  L2 U  Li NP NP NP 
004304 B2 D  Bi L2 Bi NP NP NP NP 
004305 F2 B  U  Bi R  Ui F2 NP NP 
004306 B2 L  D  B  L2 Di B  NP NP 
004307 Ri B2 R2 D  L2 Ri B  NP NP 
004308 F2 Ri Ui R  F2 Bi D  NP NP 
004309 B  U  Fi Bi R  F  Ui NP NP 
004310 B2 D  Li Di Li B  D  NP NP 
004311 Ui L  U  B2 Li Di B  NP NP 
004312 B2 L  D  B2 L2 Di B  NP NP 
004313 Ri Ui R2 Di F2 Ri Bi NP NP 
004314 B2 L  U  B2 Ui B  NP NP NP 
004315 Ri F  Ui Fi R  Bi NP NP NP 
004316 B2 D  Li Di Li B  Di NP NP 
004317 F2 Ri Ui R  F2 Bi NP NP NP 
004318 Ri F  Ui Fi R  Bi D  NP NP 
004319 B2 D  Li Di Li B  NP NP NP 
004320 U  B  Ri U  R  U2 NP NP NP 
004321 Ri F  Ui Fi B2 R  B  NP NP 
004322 B  U  Bi U2 Li U  B2 NP NP 
004323 U  B2 U2 L  U  Bi Li NP NP 
004324 B2 L  Bi U  Bi Ui NP NP NP 
004325 U  Ri U  R  U2 Bi NP NP NP 
004326 Ui L  U  Bi L  B2 L2 NP NP 
004327 Ui L  U  B  D  Li NP NP NP 
004328 B2 Di B2 D2 B  L2 NP NP NP 
004329 Ui L  U  Li B  D2 NP NP NP 
004330 Ri B  R  B  D  L2 NP NP NP 
004331 Ui L  U  B  Li NP NP NP NP 
004332 Ui Li U  D2 L  B  NP NP NP 
004333 B  U  Bi Ui Di NP NP NP NP 
004334 Ui L  U  Li B  Di NP NP NP 
004335 Ui L  U  Li B  NP NP NP NP 
004336 B2 D  Bi L  Di L  NP NP NP 
004337 B  U  Bi Ui NP NP NP NP NP 
004338 Ui L  U  Li B  D  NP NP NP 
004339 Ui Li U  D2 L  B  D2 NP NP 
004340 Ui L2 U  L2 B  NP NP NP NP 
004341 B2 D  Bi L2 NP NP NP NP NP 
004342 B2 L2 D  L2 Bi NP NP NP NP 
004343 U2 F2 R2 Fi U  Fi U  NP NP 
004344 Ui Li U  Di L  B  NP NP NP 
004345 Ui L  U  Li Di B  NP NP NP 
004346 B2 D2 L2 Di L2 Bi NP NP NP 
004347 F2 Ri U2 B2 U  R  F2 NP NP 
004348 R  D  L  Ri B2 D  L2 NP NP 
004349 R  F2 R2 Ui R2 F2 Ri NP NP 
004350 Ri U  Li Ui L  Ui R  NP NP 
004351 F2 Ri Ui R  F2 D2 NP NP NP 
004352 U  B2 U2 L  U  Li D  NP NP 
004353 F2 Ri Ui R  F2 Di NP NP NP 
004354 U  B2 U2 L  U  Li D2 NP NP 
004355 Ri Ui R2 Di F2 Ri NP NP NP 
004356 B2 D  Li Di Li B2 NP NP NP 
004357 F  Ri Ui R  Fi NP NP NP NP 
004358 U  B2 U2 L  U  Li Di NP NP 
004359 Ri U2 Bi Ui B  U2 R  NP NP 
004360 F2 Ri Ui R  F2 D  NP NP NP 
004361 U  B2 U2 L  U  Li NP NP NP 
004362 U  Ri U  R  U2 NP NP NP NP 
004363 U2 F2 R2 U  F2 Li U  NP NP 
004364 U2 F2 R  Di F2 U2 L2 NP NP 
004365 Ri F  Ui Fi R  NP NP NP NP 
004366 Ri Ui R2 F  Di F2 Di Ri NP 
004367 R  D  Ri B2 D  L2 NP NP NP 
004368 Ri B  Li R  B2 L2 NP NP NP 
004369 B2 L  Ui L2 U  Bi L  NP NP 
004370 U  B2 Ui L  B  L  NP NP NP 
004371 B  Li B  L2 D2 NP NP NP NP 
004372 B2 L  Bi L  B2 D  NP NP NP 
004373 B2 L  Bi L  Bi D2 NP NP NP 
004374 B2 L  B  D2 B2 L  NP NP NP 
004375 B2 L  B2 Di B  L  NP NP NP 
004376 B  Li B  L2 Di NP NP NP NP 
004377 B  Li B  L2 NP NP NP NP NP 
004378 B2 L  Bi L  B2 Di NP NP NP 
004379 B2 L  Bi L  Bi NP NP NP NP 
004380 B  Li B  L2 D  NP NP NP NP 
004381 B2 L  Bi L  B2 NP NP NP NP 
004382 B  Li B  L2 Bi NP NP NP NP 
004383 B  Li B  L2 B2 NP NP NP NP 
004384 B  Li B  L2 D  Bi NP NP NP 
004385 B2 L  Bi L  B  NP NP NP NP 
004386 B  L2 D2 L  B  L2 NP NP NP 
004387 B2 L  Bi L  NP NP NP NP NP 
004388 B  Li B  L2 B  NP NP NP NP 
004389 B  L2 B2 Di B  D2 Li NP NP 
004390 B  L2 Bi D2 Bi D  Li NP NP 
004391 U  B  Ui B  L  NP NP NP NP 
004392 B  Ui L2 U  Li NP NP NP NP 
004393 B  L2 B2 D  Li Di NP NP NP 
004394 B  Ui L2 U  B  Li D2 NP NP 
004395 B  L2 B2 D  Li NP NP NP NP 
004396 B  Ui L2 U  B  Li Di NP NP 
004397 B  Ui L2 U  Li D  NP NP NP 
004398 B  Ui L2 U  Li D2 NP NP NP 
004399 B  Ui Li U  L2 Bi NP NP NP 
004400 B  Ui L2 U  B  Li NP NP NP 
004401 B  Ui L2 U  Li Di NP NP NP 
004402 B  L2 B2 D  Li D2 NP NP NP 
004403 B  L2 D2 B2 D  Li NP NP NP 
004404 B2 U  Bi Ui L  D2 B2 NP NP 
004405 B  Ui Li U  L2 B  NP NP NP 
004406 B  Ui L2 U  B  Li B2 NP NP 
004407 B  Ui Li U  L2 NP NP NP NP 
004408 B  Ui L2 U  B2 Li NP NP NP 
004409 B  Li B2 Li D  Li NP NP NP 
004410 B2 L2 U  Bi Ui L  NP NP NP 
004411 B2 L2 Bi L2 D  Li NP NP NP 
004412 B  L2 B  Li NP NP NP NP NP 
004413 B  L2 B  Di Li NP NP NP NP 
004414 B  L2 Di B  D  Li NP NP NP 
004415 B2 L2 Bi L  NP NP NP NP NP 
004416 B  L2 B  D  Li NP NP NP NP 
004417 B  L2 Di B  Di Li NP NP NP 
004418 B2 L2 Bi L2 D2 Li NP NP NP 
004419 B2 L  B  L  B2 L  NP NP NP 
004420 B  L2 B  D2 Li NP NP NP NP 
004421 B  L2 Di B  Li NP NP NP NP 
004422 B  L2 B  D2 Li Bi NP NP NP 
004423 B  L2 Di B  Li Bi NP NP NP 
004424 B  L2 Bi D2 B2 Li NP NP NP 
004425 B2 Ui L2 U  Bi L  B  NP NP 
004426 B  L2 B  D2 Li B2 NP NP NP 
004427 B  L2 Di B  Li B2 NP NP NP 
004428 B  L2 D2 B  Li NP NP NP NP 
004429 B2 L  B2 L  B  L  NP NP NP 
004430 B2 Ui L2 U  Bi L  NP NP NP 
004431 Bi D2 L  Di Li B2 L  NP NP 
004432 Bi D  Li D2 B2 L  NP NP NP 
004433 B  L  B2 D  NP NP NP NP NP 
004434 Ui Li U2 Di Bi Ui D  NP NP 
004435 B  L  Fi B2 D  F  NP NP NP 
004436 B  L2 D2 B2 Li D  NP NP NP 
004437 B  L2 B2 D2 Li Di NP NP NP 
004438 B2 L  Bi Li B  L2 D  NP NP 
004439 F  B  L  Fi B2 D  NP NP NP 
004440 B  L2 B2 Di Li D2 NP NP NP 
004441 B  L2 D  Li B2 D  NP NP NP 
004442 Bi D2 B2 L  Di NP NP NP NP 
004443 Bi U  R  D  Ri B2 Ui NP NP 
004444 Bi D  Li B2 L  NP NP NP NP 
004445 B  Li B2 L2 D  B2 NP NP NP 
004446 B  Li B2 L2 D  B  NP NP NP 
004447 B  L2 D2 Li B2 D  NP NP NP 
004448 Bi D  Li B2 L  Bi NP NP NP 
004449 Bi D  Li Di B2 L  NP NP NP 
004450 B  L2 Di B2 Li D  NP NP NP 
004451 B  Li B2 L2 D  NP NP NP NP 
004452 F  Ui L  F  Ri U  F2 NP NP 
004453 R  Di R2 B  L  R  NP NP NP 
004454 B  L2 B  Li D  NP NP NP NP 
004455 U  B  Ui F  B  L  Fi NP NP 
004456 R  D  L2 Ri D2 B  L  NP NP 
004457 B  Li B  Li D  Li NP NP NP 
004458 B  L2 Di B  D  Li D  NP NP 
004459 B2 L2 Bi L  D  NP NP NP NP 
004460 B  L2 B  Di Li D  NP NP NP 
004461 U  R  B2 Di Ri Bi Ui NP NP 
004462 R  Di Ri B  L  Bi NP NP NP 
004463 B2 L  Bi L2 D  Li Bi NP NP 
004464 R  Di Ri B  L  B2 NP NP NP 
004465 B  L2 B  D2 Li D  NP NP NP 
004466 B  L2 Di B  Li D  NP NP NP 
004467 B  L2 Di B  Li D  Bi NP NP 
004468 R  Di Ri B  L  B  NP NP NP 
004469 Bi D  B2 L  B  D2 NP NP NP 
004470 R  Di Ri B  L  NP NP NP NP 
004471 B2 L  Bi L2 D  Li NP NP NP 
004472 B2 Ui L2 U  Bi L  D  NP NP 
004473 B  L2 B  Di B  D2 Li NP NP 
004474 Bi D2 Bi L  Bi L  NP NP NP 
004475 B  L  B2 D2 NP NP NP NP NP 
004476 B  L2 D  B2 D2 Li NP NP NP 
004477 Bi D2 Li B2 L  NP NP NP NP 
004478 B  L2 B2 D2 Bi Li NP NP NP 
004479 U  B  Ui B  L2 D  Li NP NP 
004480 B  L2 D2 B2 Li D2 NP NP NP 
004481 Ui Li U2 Di Bi Ui D2 NP NP 
004482 Bi D2 B2 L  B  NP NP NP NP 
004483 B  L2 B2 D2 Li NP NP NP NP 
004484 Bi D  B2 D  L  Bi NP NP NP 
004485 B  L2 B2 D2 Li Bi NP NP NP 
004486 B  L2 D  Li B2 D2 NP NP NP 
004487 Bi D2 B2 L  NP NP NP NP NP 
004488 Bi D2 B2 L  Bi NP NP NP NP 
004489 Ri Bi R  Bi D2 L2 NP NP NP 
004490 Bi D  B2 D  L  B  NP NP NP 
004491 B  L2 B2 D2 Li B  NP NP NP 
004492 Bi D  B2 D  L  NP NP NP NP 
004493 B  Li B2 L2 D2 NP NP NP NP 
004494 B2 Li B  D2 B2 L  NP NP NP 
004495 B  Li B  Li D2 Li NP NP NP 
004496 U2 F  R  Fi U2 NP NP NP NP 
004497 B  Li Ri Bi L2 R  NP NP NP 
004498 B  L2 B  D2 Li D2 NP NP NP 
004499 B  L2 Di B  Li D2 NP NP NP 
004500 F  B2 Li F2 D2 F  Li NP NP 
004501 F2 U  R  B  Ui F2 NP NP NP 
004502 B  L2 B  D2 Li Bi D2 NP NP 
004503 B  L2 B  Di Li D2 NP NP NP 
004504 U  Fi R  F  B  Ui Bi NP NP 
004505 B2 L2 Bi L  D2 NP NP NP NP 
004506 U  Fi R  F  B  Ui B2 NP NP 
004507 B  L2 B  D  Li D2 NP NP NP 
004508 F  U2 F  R  B2 U2 F2 NP NP 
004509 U2 F  Ri F  R2 F2 U2 NP NP 
004510 B2 Li Bi Di L  Di NP NP NP 
004511 B2 L2 Bi L  D2 B2 NP NP NP 
004512 U  Fi R  F  B  Ui NP NP NP 
004513 R  D  Ri Di B  L  NP NP NP 
004514 B2 Ui L2 U  Bi L  D2 NP NP 
004515 B  Ui L2 U  B  D2 Li NP NP 
004516 F  B  L  F2 B2 Di F  NP NP 
004517 B  L  B2 Di NP NP NP NP NP 
004518 B  L2 B2 Di Li NP NP NP NP 
004519 B  L2 D  Li B2 Di NP NP NP 
004520 Bi D2 B2 L  D  NP NP NP NP 
004521 Bi Di B2 L  NP NP NP NP NP 
004522 Fi Bi Di F2 B2 L  Fi NP NP 
004523 B  L2 D  B2 D2 Li D  NP NP 
004524 B  Li B2 L2 Di Bi NP NP NP 
004525 Bi D2 L2 D  B2 L  NP NP NP 
004526 B  L2 B2 Di B  Li NP NP NP 
004527 F  B  L  Fi B2 Di NP NP NP 
004528 B  L2 B2 D2 Li D  NP NP NP 
004529 B  L2 D2 B2 Di Li NP NP NP 
004530 B  Li B2 L2 Di B  NP NP NP 
004531 B  L2 D2 Li B2 Di NP NP NP 
004532 Bi D  B2 D2 L  B  NP NP NP 
004533 B  Ui Li U  Li D2 Li NP NP 
004534 Bi D  B2 D2 L  NP NP NP NP 
004535 B  Li B2 L2 Di NP NP NP NP 
004536 B  Ui Li U  B2 L2 Bi NP NP 
004537 R  Di R2 B  L  R  D2 NP NP 
004538 B  L2 B  Li Di NP NP NP NP 
004539 R  D  Ri B  L  D2 Bi NP NP 
004540 B  Ui Li U  B  L2 NP NP NP 
004541 B2 Li Fi Bi Di F  L  NP NP 
004542 B  L2 B  D2 Li Di NP NP NP 
004543 B  L2 Di B  Li Di NP NP NP 
004544 B  Li B  Li Di Li NP NP NP 
004545 U  B  Ui B  Li B  L2 NP NP 
004546 B2 L  Bi L2 B2 Di Li NP NP 
004547 F  U2 F  R  U2 F2 D  NP NP 
004548 B  L2 B  Di Li Di NP NP NP 
004549 U2 Ri F  R2 D  Ri U2 NP NP 
004550 B2 L2 Bi L  Di NP NP NP NP 
004551 R  D  Li Ri B  L  Bi NP NP 
004552 B2 Li Bi Di L  NP NP NP NP 
004553 Bi D  B2 L  B  NP NP NP NP 
004554 R  Di Ri B  L  D2 NP NP NP 
004555 B2 L  Bi L2 Di Li NP NP NP 
004556 B2 Ui L2 U  Bi L  Di NP NP 
004557 R  D2 L  Di Ri B  L  NP NP 
004558 F  B  L  F2 Di F  B2 NP NP 
004559 B  L  B2 NP NP NP NP NP NP 
004560 F  B  L  Fi B2 NP NP NP NP 
004561 Ui Li U2 D  Bi Ui NP NP NP 
004562 B2 L  Bi Li B  L2 NP NP NP 
004563 B  L2 D  Li B2 NP NP NP NP 
004564 Bi D2 B2 L  D2 NP NP NP NP 
004565 F  B  L  Fi D  B2 NP NP NP 
004566 B  L2 Di L  B2 L2 NP NP NP 
004567 Ri B  L  R  Bi NP NP NP NP 
004568 B  L2 B  Di B  Li NP NP NP 
004569 Ui Li U2 Di Bi Ui NP NP NP 
004570 B  U  B2 Ui Li B2 L  NP NP 
004571 B  L2 D2 B2 Li NP NP NP NP 
004572 F  B  L  Fi D2 B2 NP NP NP 
004573 B  L2 D2 Li B2 NP NP NP NP 
004574 F2 Li B  L  F2 D  B2 NP NP 
004575 F  B  L  Fi Di B2 NP NP NP 
004576 B  L2 Di B2 Li NP NP NP NP 
004577 B  Li B2 L2 NP NP NP NP NP 
004578 B  L  Fi Di B  D2 F  NP NP 
004579 F2 Bi Ri Bi U2 R  F2 NP NP 
004580 B  L  B  NP NP NP NP NP NP 
004581 F  B  L  Fi B  NP NP NP NP 
004582 B  L  Fi B  D  F  NP NP NP 
004583 B  L2 D2 Bi Li B2 NP NP NP 
004584 B  L2 D  Li B  NP NP NP NP 
004585 F2 Li B  L  F2 B  NP NP NP 
004586 B2 Li Bi L  D2 NP NP NP NP 
004587 B  Li B2 L2 Bi NP NP NP NP 
004588 F  B  L  Fi Di B  NP NP NP 
004589 B  L2 D  Li D2 B  NP NP NP 
004590 B2 Li Bi L  NP NP NP NP NP 
004591 B  L2 D  Li B  D2 NP NP NP 
004592 F2 Li B  L  F2 B  D2 NP NP 
004593 B  L2 D2 B2 Li Bi NP NP NP 
004594 B  L2 Bi D2 Li B2 NP NP NP 
004595 R  D  L  Ri D  B  L  NP NP 
004596 B  L2 D2 Li B  NP NP NP NP 
004597 B2 L  B2 L2 B  L  NP NP NP 
004598 F  B  L  Fi D2 B  NP NP NP 
004599 Bi D2 L  Di B2 L  NP NP NP 
004600 Bi D  B2 Li B2 L2 NP NP NP 
004601 B  L  Ui Li U  NP NP NP NP 
004602 Bi D  B2 L2 B2 Li NP NP NP 
004603 Bi D2 Li B2 Di L  NP NP NP 
004604 Bi D  B2 Li B  L2 NP NP NP 
004605 Bi D2 L2 B2 Di L  NP NP NP 
004606 F2 B  L  Ui Li U  F2 NP NP 
004607 B  Ui L  U  B2 D  L2 NP NP 
004608 B2 Di B  D  Bi L  NP NP NP 
004609 Bi D2 L2 Di B2 L  NP NP NP 
004610 Bi D  B2 L2 Bi Li NP NP NP 
004611 Bi D  B2 L2 B  Li NP NP NP 
004612 Bi D2 L2 B2 Di L  D2 NP NP 
004613 Bi D  B2 L2 Bi Li D  NP NP 
004614 Bi D2 B2 Di L  NP NP NP NP 
004615 F  B  L  Fi Ui Li U  NP NP 
004616 Bi D2 B  L2 Di B  L  NP NP 
004617 B2 Li Bi Di L  Bi NP NP NP 
004618 Bi D  B2 L  NP NP NP NP NP 
004619 B  Li B2 L  D  L  NP NP NP 
004620 B  L2 D2 L  Bi L2 NP NP NP 
004621 B2 L  Bi Li B2 L2 NP NP NP 
004622 B  L  Bi NP NP NP NP NP NP 
004623 B  Li Bi L2 NP NP NP NP NP 
004624 B  U  B  Ui Bi L  NP NP NP 
004625 B  L2 D2 Bi Li NP NP NP NP 
004626 B  L2 Bi D  Li NP NP NP NP 
004627 F  Ui L  F  U  F2 NP NP NP 
004628 B  Li Bi L2 D  NP NP NP NP 
004629 B  Li Bi L2 D2 NP NP NP NP 
004630 B  L2 Bi D2 Li NP NP NP NP 
004631 B  L2 D2 Bi Li D2 NP NP NP 
004632 B  L2 D2 Li Bi NP NP NP NP 
004633 B2 L  B  Li B2 L  NP NP NP 
004634 F  U2 F  U2 F2 Li NP NP NP 
004635 B  Li B2 L2 B  NP NP NP NP 
004636 F  B  L  Fi Di Bi NP NP NP 
004637 B  L2 D  Li D2 Bi NP NP NP 
004638 Ri B  L  R  NP NP NP NP NP 
004639 B  L2 B  Di B2 Li NP NP NP 
004640 B  L2 Di L  Bi L2 NP NP NP 
004641 B  Ui Li U  B2 L2 NP NP NP 
004642 R  D  Ri B  L2 D2 Li NP NP 
004643 B  L  Ui Li U  B2 NP NP NP 
004644 R  D  Ri B  L  D2 NP NP NP 
004645 R  D  L2 Ri B  L  NP NP NP 
004646 R  D  Li Ri B  L  D  NP NP 
004647 Bi D  B2 L  B2 D2 NP NP NP 
004648 R  D  Li Ri B  L  D2 NP NP 
004649 R  D  Ri B  L  Di NP NP NP 
004650 R  D  Ri B  L  NP NP NP NP 
004651 Bi D  B2 L  B2 Di NP NP NP 
004652 R  D  Li Ri B  L  Di NP NP 
004653 R  D  Ri B  L  D  NP NP NP 
004654 Bi D  B2 L  B2 NP NP NP NP 
004655 R  D  Li Ri B  L  NP NP NP 
004656 R  D  Li Ri B  Di L  NP NP 
004657 R  Di Ri B  L  D2 B  NP NP 
004658 R  D  L  Ri B  L  NP NP NP 
004659 U  Fi R  F  D  B  Ui NP NP 
004660 B  U2 Ri Ui R  Ui L  NP NP 
004661 U  B  Ui B  Li B2 L2 NP NP 
004662 B  L2 Bi Di B  D2 Li NP NP 
004663 F  B  L  F2 Di F  NP NP NP 
004664 B  L  NP NP NP NP NP NP NP 
004665 F  B  L  Fi NP NP NP NP NP 
004666 B  L  Fi D  F  NP NP NP NP 
004667 F2 Li B  L  F2 Di NP NP NP 
004668 B  L2 D  Li NP NP NP NP NP 
004669 F2 Li B  L  F2 NP NP NP NP 
004670 F  B  L  Fi D  NP NP NP NP 
004671 F  B  L  Fi D2 NP NP NP NP 
004672 B  L2 D2 Li NP NP NP NP NP 
004673 F2 Li B  L  F2 D  NP NP NP 
004674 F  B  L  Fi Di NP NP NP NP 
004675 B  L2 D  Li D2 NP NP NP NP 
004676 B  Li B2 L2 B2 NP NP NP NP 
004677 B  L2 D  L2 D2 L  NP NP NP 
004678 Ri B  L  R  B  NP NP NP NP 
004679 B  U  L  B  Li Ui L  NP NP 
004680 B  L2 Bi D2 Li B  NP NP NP 
004681 U2 L  D2 Li U2 B  L  NP NP 
004682 B  L  B2 L2 B2 L2 NP NP NP 
004683 B  Ui Li U  B2 L2 B  NP NP 
004684 Bi D  B2 Li B2 L2 Bi NP NP 
004685 U  Bi R  B  Ri Ui NP NP NP 
004686 U  B  Ui B  Li Bi L2 NP NP 
004687 R2 U  R  B  Ui R  D2 NP NP 
004688 Bi D  B2 L  Bi D2 NP NP NP 
004689 R2 U  R  B  Ui R  Di NP NP 
004690 Bi D  B2 L  Bi Di NP NP NP 
004691 R  D  Ri B  L  Di B  NP NP 
004692 R  D  Li Ri B  L  B  NP NP 
004693 R2 U  R  B  Ui R  NP NP NP 
004694 Bi D  B2 L  Bi NP NP NP NP 
004695 U  B  Ui B2 Li Bi L  NP NP 
004696 R2 U  R  B  Ui R  D  NP NP 
004697 Bi D  B2 L  Bi D  NP NP NP 
004698 U  B  Ui B  Li B  L2 B2 NP 
004699 B2 Li Bi Di L2 B2 Li NP NP 
004700 F2 U  R  B  Ui F2 D  B2 NP 
004701 U  Fi R  B  R2 F  Ui NP NP 
004702 Bi D  B2 L  Ri Bi R  NP NP 
004703 R  D  Ri B  L  B  NP NP NP 
004704 B2 L2 B  NP NP NP NP NP NP 
004705 U  Bi Ui Bi D  L2 NP NP NP 
004706 B  Ui F  Ui Fi U2 B2 NP NP 
004707 B2 L  B2 L2 Bi Li NP NP NP 
004708 U  B2 Ui L2 Bi D2 NP NP NP 
004709 B2 Ui L2 U  B  D  NP NP NP 
004710 B2 L  B  D2 L  NP NP NP NP 
004711 B2 Ui L2 U  B  D2 NP NP NP 
004712 Ri B  R  B2 D2 L2 NP NP NP 
004713 R  Di Ri Bi Di Li NP NP NP 
004714 U  B2 Ui L2 Bi NP NP NP NP 
004715 Ri B  U2 L  U2 R  NP NP NP 
004716 B2 L  B2 D2 Bi L  NP NP NP 
004717 B2 L  B2 L  Bi NP NP NP NP 
004718 B2 Ui L2 U  B  NP NP NP NP 
004719 B2 L  B  L  NP NP NP NP NP 
004720 U  Bi Ui Bi D2 L2 NP NP NP 
004721 B  L2 Di B  L2 B2 NP NP NP 
004722 Bi U2 Fi D2 F  U2 NP NP NP 
004723 R  D2 L2 Ri Bi L  NP NP NP 
004724 R2 Ui F2 U  R2 Bi NP NP NP 
004725 B2 L  U  B  U2 L2 U  NP NP 
004726 U  B  Ui Bi Li D  L2 NP NP 
004727 U  Bi Ui Di Bi D2 Li NP NP 
004728 Bi D  Li NP NP NP NP NP NP 
004729 U  B  Ui L  Bi D2 NP NP NP 
004730 Bi D  B  Li D2 Bi NP NP NP 
004731 U  B  Ui L  Bi Di NP NP NP 
004732 Bi D  B  Li Di Bi NP NP NP 
004733 Bi D  Li D  NP NP NP NP NP 
004734 Bi D  Li D2 NP NP NP NP NP 
004735 U  B  Ui L  Bi NP NP NP NP 
004736 Bi D2 L  Di Li NP NP NP NP 
004737 Bi D  Li Di NP NP NP NP NP 
004738 Bi D  B  Li Bi NP NP NP NP 
004739 Bi D2 L2 Di Li NP NP NP NP 
004740 U  B  Ui Bi D  L  NP NP NP 
004741 Bi D2 Li Di Li NP NP NP NP 
004742 U  B  Ui B2 L2 B  Li NP NP 
004743 R  D  L  Ri Bi L2 NP NP NP 
004744 Bi D2 B2 Di B2 Li NP NP NP 
004745 Bi D  L  Ui Li U  Li NP NP 
004746 R  Di Ri Bi L2 Di NP NP NP 
004747 B2 L  B  L2 NP NP NP NP NP 
004748 U  Bi Ui Bi D2 Li NP NP NP 
004749 U  Bi Ui Bi D  Li NP NP NP 
004750 B2 D2 Li D2 B  D2 NP NP NP 
004751 B2 Li B  NP NP NP NP NP NP 
004752 F  B2 Li Fi B  NP NP NP NP 
004753 B2 L  B2 Di L2 Bi NP NP NP 
004754 Ri B  R  B2 D2 Li NP NP NP 
004755 R  Di Ri Bi Di NP NP NP NP 
004756 U  B2 Ui Li Bi NP NP NP NP 
004757 U2 F2 R  F2 U2 Bi D2 NP NP 
004758 R  Di Ri B  Di B2 NP NP NP 
004759 B2 L  B2 L2 Bi NP NP NP NP 
004760 R  F  D2 Fi Ri Bi NP NP NP 
004761 Bi Ri B  R  D2 NP NP NP NP 
004762 B2 L  B  D  L2 NP NP NP NP 
004763 R  Di Ri Bi L  Di NP NP NP 
004764 R  D  L  Ri D  Bi NP NP NP 
004765 R  D2 L2 Ri Bi L2 NP NP NP 
004766 R2 Ui F2 U  R2 Bi L  NP NP 
004767 U  B  Ui B2 L2 B  NP NP NP 
004768 U  B  Ui Bi D  L2 NP NP NP 
004769 Bi D2 Li Di NP NP NP NP NP 
004770 U  B  Ui Bi Li D  Li NP NP 
004771 U  Bi Ui Di Bi D2 NP NP NP 
004772 Bi D2 L2 D2 Li D  NP NP NP 
004773 Bi Di Fi D2 F  NP NP NP NP 
004774 Bi D2 L2 D  Li D2 NP NP NP 
004775 Bi D  Li D  L  NP NP NP NP 
004776 Bi D  Li D2 L  NP NP NP NP 
004777 U  B  Ui L2 Bi NP NP NP NP 
004778 Bi D2 L  Di NP NP NP NP NP 
004779 Fi R  Di Ri F  L  Bi NP NP 
004780 Bi D  NP NP NP NP NP NP NP 
004781 B  Li B2 L  D  B2 NP NP NP 
004782 B2 Di B  D  B  NP NP NP NP 
004783 Bi D2 L2 Di NP NP NP NP NP 
004784 Bi D  Li Di L  NP NP NP NP 
004785 R  D  L  Ri Bi Li NP NP NP 
004786 Bi D2 B2 Di B2 NP NP NP NP 
004787 Bi D  L  Ui Li U  NP NP NP 
004788 R  Di Ri Bi L2 NP NP NP NP 
004789 B2 L  B  L2 D  NP NP NP NP 
004790 R  D  L2 Ri D2 Bi NP NP NP 
004791 B2 L  B  L2 D  L  NP NP NP 
004792 R  Di Ri B2 L2 B  NP NP NP 
004793 R  Di Ri Bi Li NP NP NP NP 
004794 B2 D2 Li D2 B  Di NP NP NP 
004795 B2 Li B  D  NP NP NP NP NP 
004796 U  Bi Ui Bi D  Li D  NP NP 
004797 R  D  Li D2 Ri Bi NP NP NP 
004798 B2 Di Li D  B  NP NP NP NP 
004799 U  B  Ui B2 Li B  D2 NP NP 
004800 R  Di Ri Bi NP NP NP NP NP 
004801 U  B2 Ui Li Bi D  NP NP NP 
004802 B2 Di Li B2 D  B  NP NP NP 
004803 Bi Ri B  R  Di NP NP NP NP 
004804 Ri B  R2 Di Ri B2 NP NP NP 
004805 R  Di Ri Bi L  NP NP NP NP 
004806 R  D  L  Ri D2 Bi NP NP NP 
004807 R  D2 L2 Ri Bi L2 D  NP NP 
004808 Ri B  R2 D  Li D2 Ri NP NP 
004809 Fi Bi Di F  Li Di NP NP NP 
004810 F2 D  Bi Di F2 Di NP NP NP 
004811 Bi D2 Li NP NP NP NP NP NP 
004812 Bi D  B  D  Bi L2 NP NP NP 
004813 Bi D2 NP NP NP NP NP NP NP 
004814 Bi Ui D2 Li U  L2 NP NP NP 
004815 U2 R2 F  Ui R2 Ui NP NP NP 
004816 R2 U2 F  Li U2 R2 NP NP NP 
004817 U2 Fi D2 F  U2 Bi D2 NP NP 
004818 Bi D2 Fi D  F  NP NP NP NP 
004819 U  Bi Ui D2 Bi NP NP NP NP 
004820 Bi D2 L  Fi Di F  NP NP NP 
004821 Bi D2 Fi D2 F  NP NP NP NP 
004822 Bi D  B2 D  B2 NP NP NP NP 
004823 Bi D2 L  NP NP NP NP NP NP 
004824 Bi D  B  D  Bi NP NP NP NP 
004825 Bi D2 L2 NP NP NP NP NP NP 
004826 Bi Ui D2 Li U  NP NP NP NP 
004827 Bi D2 B  L2 Bi NP NP NP NP 
004828 Bi Ui D2 L2 U  NP NP NP NP 
004829 Bi U2 L  D2 Li U2 NP NP NP 
004830 R  Di Ri Bi L2 D  NP NP NP 
004831 B2 L  B  L2 D2 NP NP NP NP 
004832 R  D  L2 Ri Di Bi NP NP NP 
004833 R  Di Ri Bi D  NP NP NP NP 
004834 U  B2 Ui Li Bi D2 NP NP NP 
004835 U2 F2 R  F2 U2 Bi NP NP NP 
004836 B2 L  B2 L2 Bi D2 NP NP NP 
004837 R  Di Ri Bi Li D  NP NP NP 
004838 B2 L  B  L2 D  L  D  NP NP 
004839 U  Bi Ui Bi D  Li D2 NP NP 
004840 B2 D2 Li D2 B  NP NP NP NP 
004841 B2 Li B  D2 NP NP NP NP NP 
004842 R  Di Ri B  D  B2 NP NP NP 
004843 R  D  Ri Di Bi NP NP NP NP 
004844 U  B  Ui B2 Li B  Di NP NP 
004845 Bi Ri B  R  NP NP NP NP NP 
004846 B2 L  B  D  L2 D2 NP NP NP 
004847 R  Di Ri D  Bi NP NP NP NP 
004848 R  D  L  Ri Di Bi NP NP NP 
004849 B2 L  D2 L2 D2 B  NP NP NP 
004850 R  Di Ri D  L  Bi NP NP NP 
004851 Fi Bi Di F  Li NP NP NP NP 
004852 F2 D  Bi Di F2 NP NP NP NP 
004853 Bi D2 Li D  NP NP NP NP NP 
004854 F2 D  Bi Di F2 L  NP NP NP 
004855 Bi D2 L2 D  L2 NP NP NP NP 
004856 Fi Bi Di F  NP NP NP NP NP 
004857 Bi Di NP NP NP NP NP NP NP 
004858 Fi Bi Di F2 L  Fi NP NP NP 
004859 Bi D  B  D  Bi L2 D  NP NP 
004860 U2 Fi D2 F  U2 Bi Di NP NP 
004861 U  Bi Ui Di Bi NP NP NP NP 
004862 Bi D2 L2 D2 Li Di NP NP NP 
004863 Fi Bi Di F  L  NP NP NP NP 
004864 Bi D  B2 D2 B2 NP NP NP NP 
004865 Bi D2 L2 D  Li NP NP NP NP 
004866 F2 D  Bi Di F2 Li NP NP NP 
004867 Bi D2 L2 D  NP NP NP NP NP 
004868 Fi Bi Di F  L2 NP NP NP NP 
004869 Bi D2 B  L2 Bi D  NP NP NP 
004870 Bi U2 F2 Di F2 U2 NP NP NP 
004871 Bi U2 L  D2 Li U2 D  NP NP 
004872 Bi D  Bi L  B  NP NP NP NP 
004873 B2 L  B  L2 Di NP NP NP NP 
004874 B2 Li B  Di L2 NP NP NP NP 
004875 B2 L  B  L2 Di L  NP NP NP 
004876 B2 Li B  Di Li NP NP NP NP 
004877 U  B  Ui B2 Li B  NP NP NP 
004878 U  B2 Ui Li Bi Di NP NP NP 
004879 U2 F2 R  F2 U2 Bi D  NP NP 
004880 R  Di Ri Bi D2 NP NP NP NP 
004881 B2 L  B  L2 D  L  D2 NP NP 
004882 B2 L  B2 L2 Bi Di NP NP NP 
004883 R  Di Ri Bi Li D2 NP NP NP 
004884 Bi D  Bi L  B  L2 NP NP NP 
004885 B2 L  B  L2 Di L2 NP NP NP 
004886 B2 Li B  Di NP NP NP NP NP 
004887 Bi Ri B  R  D  NP NP NP NP 
004888 B2 Li B  Di L  NP NP NP NP 
004889 R  Di Ri Bi L  D2 NP NP NP 
004890 R  D  L  Ri D  Bi Di NP NP 
004891 B2 L  Bi U  B2 Ui NP NP NP 
004892 R  Di Ri D  L  Bi D  NP NP 
004893 Fi Bi Di F  Li D  NP NP NP 
004894 B  L2 Di L2 B2 NP NP NP NP 
004895 Bi D2 Li D2 NP NP NP NP NP 
004896 Fi Bi Di F  L  D  NP NP NP 
004897 Bi D2 L2 D2 L2 NP NP NP NP 
004898 U2 Fi D  F  U2 Bi NP NP NP 
004899 B  L2 D  L2 B2 NP NP NP NP 
004900 Bi D2 L  D2 NP NP NP NP NP 
004901 B2 L  D2 Li D2 B  NP NP NP 
004902 B  U  B2 Ui Ri B2 R  NP NP 
004903 Bi NP NP NP NP NP NP NP NP 
004904 Bi Ui D2 Li U  L2 D2 NP NP 
004905 U2 Fi D2 F  U2 Bi NP NP NP 
004906 U2 L  D2 Li U2 Bi NP NP NP 
004907 Bi D2 L2 D2 Li NP NP NP NP 
004908 Ui Li D  L  U  Bi NP NP NP 
004909 Bi D2 L2 D2 NP NP NP NP NP 
004910 U2 Fi Di F  U2 Bi NP NP NP 
004911 R  D  L  Di Ri Bi NP NP NP 
004912 Bi U  R2 U  R2 U2 NP NP NP 
004913 R2 Di L2 D  R2 Bi NP NP NP 
004914 U  Bi Ui B2 L2 B  NP NP NP 
004915 B  Li Bi L  B2 NP NP NP NP 
004916 B  U  B  Ui B  NP NP NP NP 
004917 B2 L  B  Li NP NP NP NP NP 
004918 U  Bi Ui Bi D2 NP NP NP NP 
004919 B2 Di Bi D  B  NP NP NP NP 
004920 Bi Ri Bi R  NP NP NP NP NP 
004921 Bi D  B  Di Bi NP NP NP NP 
004922 Ri B  R  B2 D2 NP NP NP NP 
004923 Ri B  R  B2 Di NP NP NP NP 
004924 U  Bi Ui Bi NP NP NP NP NP 
004925 B2 Di Bi D  B  D2 NP NP NP 
004926 Ri B  R  B2 NP NP NP NP NP 
004927 U  Bi Ui Bi D  NP NP NP NP 
004928 B2 Di Bi D  B  Di NP NP NP 
004929 B2 L  B2 L2 Bi L  NP NP NP 
004930 B  L2 Bi D2 L2 B2 NP NP NP 
004931 B2 Ui L2 U  B  D  L2 NP NP 
004932 Ri B  R  U  B2 Ui NP NP NP 
004933 R  D2 L2 Ri Bi Li NP NP NP 
004934 U2 Li U2 Bi R  Bi Ri NP NP 
004935 B2 L  U  B  Ui NP NP NP NP 
004936 B2 Di B  D  B  L  NP NP NP 
004937 R  D  L2 Ri Bi NP NP NP NP 
004938 U  B  Ui Bi D  Li NP NP NP 
004939 R  D  Li Ri Bi NP NP NP NP 
004940 Bi D2 L  Di L  D2 NP NP NP 
004941 U  B  Ui Bi Li Di NP NP NP 
004942 B2 L  B2 L2 Di Bi NP NP NP 
004943 Bi D  Li D  L2 NP NP NP NP 
004944 Bi D  Li D2 L2 NP NP NP NP 
004945 U  B  Ui Bi Li NP NP NP NP 
004946 Bi D2 L  Di L  NP NP NP NP 
004947 Bi D  Li D  L2 D2 NP NP NP 
004948 U  B  Ui Bi Li D  NP NP NP 
004949 Bi D2 L  Di L  D  NP NP NP 
004950 Bi D  L  NP NP NP NP NP NP 
004951 U  B  Ui L  Bi D2 L2 NP NP 
004952 B  U  B2 U2 D  Li U  NP NP 
004953 R  D  L  Ri Bi NP NP NP NP 
004954 Bi D2 B2 Di B2 L  NP NP NP 
004955 R  Di Ri D  L  D  Bi NP NP 
004956 U  B  Ui L2 B2 L2 B  NP NP 
004957 Bi D  L2 NP NP NP NP NP NP 
004958 U2 F  Ui R2 U2 Fi U  NP NP 
004959 B2 Di B  D  B  L2 NP NP NP 
004960 U  B  Ui Bi D2 NP NP NP NP 
004961 Bi D  Li Di Li NP NP NP NP 
004962 U  B  Ui Bi Di NP NP NP NP 
004963 Bi D  Li Di Li D  NP NP NP 
004964 Bi D  Li D  Li NP NP NP NP 
004965 Bi D  Li D2 Li NP NP NP NP 
004966 U  B  Ui Bi NP NP NP NP NP 
004967 Bi D2 L  Di L2 NP NP NP NP 
004968 B  Ui Li U  L  B2 NP NP NP 
004969 U  B  Ui Bi D  NP NP NP NP 
004970 Bi D2 Li Di L2 NP NP NP NP 
004971 B2 Di B  D  L2 B  NP NP NP 
004972 U  B  Ui Ri B2 R  B  NP NP 
004973 B  Ui L2 U  B  L2 B2 NP NP 
004974 R  D  L  Ri Bi L  NP NP NP 
004975 Bi D2 B2 Di B2 L2 NP NP NP 
004976 Ui L2 Di L  U2 B  Ui NP NP 
004977 B2 L  Fi B  D  F  NP NP NP 
004978 B2 L  B2 L2 Bi L2 NP NP NP 
004979 Bi D2 Li F  Li Fi NP NP NP 
004980 B2 L  B  Ui Li U  NP NP NP 
004981 B2 L  B  D  NP NP NP NP NP 
004982 B2 L  B2 D2 Bi NP NP NP NP 
004983 B2 L  B  D2 NP NP NP NP NP 
004984 B2 L  B2 Di Bi NP NP NP NP 
004985 Ri B  R  B2 D2 L  NP NP NP 
004986 R  Di Ri Bi Di L2 NP NP NP 
004987 B2 L  B  Di NP NP NP NP NP 
004988 B2 Ui L2 U  Li B  NP NP NP 
004989 B2 Di Bi D  B  L  NP NP NP 
004990 B2 L  B  NP NP NP NP NP NP 
004991 U  Bi Ui Bi D2 L  NP NP NP 
004992 B  Li B  L  B2 NP NP NP NP 
004993 B2 L  B  Ui L2 U  NP NP NP 
004994 B2 L2 B  Li NP NP NP NP NP 
004995 B2 L  B  Ui L  U  NP NP NP 
004996 R  D2 L2 Ri Bi NP NP NP NP 
004997 R2 Ui F2 U  R2 Bi Li NP NP 
004998 U  B2 Ui B2 L2 B  NP NP NP 
004999 B  U  B2 Ui L2 NP NP NP NP 
005000 Ri B2 R  B  L  NP NP NP NP 
005001 B  U  B2 Ui Li NP NP NP NP 
005002 U  B2 Ui Bi D2 NP NP NP NP 
005003 Bi Ri B2 R  D  NP NP NP NP 
005004 U  B2 Ui Bi Di NP NP NP NP 
005005 Bi Ri B2 R  D2 NP NP NP NP 
005006 R  D2 L  Ri D2 Bi NP NP NP 
005007 B  U  B2 Ui Li D2 NP NP NP 
005008 U  B2 Ui Bi NP NP NP NP NP 
005009 Bi Ri B2 R  Di NP NP NP NP 
005010 B  U  B2 Ui Li Di NP NP NP 
005011 B  U  B2 Ui NP NP NP NP NP 
005012 Bi Ri B2 R  NP NP NP NP NP 
005013 B  U  B2 Ui L  NP NP NP NP 
005014 Ri B2 R  B  NP NP NP NP NP 
005015 Bi Ri B2 R  D  L2 NP NP NP 
005016 U2 L2 F  R2 Fi L2 U2 NP NP 
005017 U2 R  F2 R  Fi R2 U2 NP NP 
005018 U2 R2 F  Ri F2 Ri U2 NP NP 
005019 B2 L2 B  Ui Li U  NP NP NP 
005020 Bi D  B  L  Bi L2 NP NP NP 
005021 U  B  Ui Li Bi D2 Li NP NP 
005022 Bi D  B  L  Bi Li NP NP NP 
005023 U  B  Ui Li Bi D2 NP NP NP 
005024 Bi D  B  L  D2 Bi NP NP NP 
005025 U  B  Ui Li Bi Di NP NP NP 
005026 Bi D  B  L  Di Bi NP NP NP 
005027 R  Di Ri B  D2 B2 D2 NP NP 
005028 R  Di R2 B  R  D2 B2 NP NP 
005029 U  B  Ui Li Bi NP NP NP NP 
005030 B2 Li B  D2 B2 D  B2 NP NP 
005031 R  Di Ri B  D2 B2 NP NP NP 
005032 Bi D  B  L  Bi NP NP NP NP 
005033 U  B  Ui Li Bi D2 L  NP NP 
005034 Bi D  B  L  Bi L  NP NP NP 
005035 U  B  Ui Li Bi D2 L2 NP NP 
005036 R  Di Ri B  D2 B2 L  NP NP 
005037 B2 L  B2 U  B  Ui Bi NP NP 
005038 Bi D  B  Li D2 L2 Bi NP NP 
005039 B2 Li Bi Di B2 NP NP NP NP 
005040 B2 L  D  L  B2 NP NP NP NP 
005041 Ui L  U  L2 B2 Di L2 NP NP 
005042 U2 Ri Ui R  Ui L  NP NP NP 
005043 U2 F2 D  Ri F2 U2 L  NP NP 
005044 Ui Li U  Di B2 L2 NP NP NP 
005045 B2 L  D  B2 L  D2 B2 NP NP 
005046 Ui Li U  D2 B2 L2 NP NP NP 
005047 B2 L  D  B2 L  Di B2 NP NP 
005048 B  Li B  Di L2 B  NP NP NP 
005049 B2 L  D  B  L  B2 NP NP NP 
005050 Ui L  U  L2 B2 D2 L2 NP NP 
005051 Ri Ui Li Ui L  U2 R  NP NP 
005052 Ui Li U  Bi L  Bi L2 NP NP 
005053 B2 L  D  Bi L  B2 NP NP NP 
005054 B2 D  L  D  B2 L  NP NP NP 
005055 R2 Ui L  F2 U  R2 NP NP NP 
005056 Ui L  U  L2 B2 L2 NP NP NP 
005057 B2 L  D  B2 L  B2 NP NP NP 
005058 U  Fi R  F  Ui D2 Li NP NP 
005059 Ui Li U  B2 L2 NP NP NP NP 
005060 B2 L  D  B2 L  D  B2 NP NP 
005061 U  Ri U  Fi R  U2 Bi NP NP 
005062 U  B  U  F2 D  Ri F2 U2 NP 
005063 F2 U  B  R  Ui F2 L  NP NP 
005064 F  Ri U  R  Fi NP NP NP NP 
005065 U2 Ri Ui B  R  Ui L2 NP NP 
005066 B  Ui L  U  D2 Bi D  NP NP 
005067 Ui L  U  L2 Bi D  Li Bi NP 
005068 B  Ui L  U  D2 Bi D2 NP NP 
005069 F  Ri U  L  R  Fi NP NP NP 
005070 F  Ri U  R  Fi D2 NP NP NP 
005071 Fi R2 B2 Ri Di Ri F  NP NP 
005072 B  Ui L  U  D2 Bi Di NP NP 
005073 F  Ri U  R  Fi Di NP NP NP 
005074 B  Li B2 Di B  D2 Li NP NP 
005075 F  Ri U  L2 R  Fi NP NP NP 
005076 B  Ui L  U  B  D2 B2 NP NP 
005077 Fi U  R  Ui Di F  NP NP NP 
005078 Bi D  B2 Li Di B  NP NP NP 
005079 Ri F  U  Fi R  NP NP NP NP 
005080 U  B  U2 L2 U  L  B2 NP NP 
005081 Ui L  U2 B  Ui L2 B2 Li NP 
005082 U  R  U2 L  F2 U  D2 NP NP 
005083 U  R  D2 Bi Ri B  Ui NP NP 
005084 Ui L  U  L2 B2 Li NP NP NP 
005085 R2 F2 Ui L  F2 R2 NP NP NP 
005086 U2 Ri Ui R  Ui L2 NP NP NP 
005087 B2 L2 D  L  B2 NP NP NP NP 
005088 Ui Li U  D2 B2 Li NP NP NP 
005089 F2 U  R  Ui F2 Li D2 NP NP 
005090 B  Li B  Di Li B  NP NP NP 
005091 U  R  U2 L  D2 F2 U  NP NP 
005092 Ui L  U  L2 B2 D2 Li NP NP 
005093 R2 F  Ui F  L  F2 R2 NP NP 
005094 B2 D  L  D  B  L2 B  NP NP 
005095 U  F2 D2 R  D2 F2 Ui NP NP 
005096 Ui Li U  Di B2 Li NP NP NP 
005097 U  R  B2 D2 Ri Ui B2 NP NP 
005098 F2 U  R  Ui F2 D2 NP NP NP 
005099 Ui Li U  Bi L  Bi Li NP NP 
005100 U  Fi R  F  Ui D2 NP NP NP 
005101 Ui Li U  B2 Li NP NP NP NP 
005102 U  R  B2 D2 B  Ri Ui B  NP 
005103 Ui L  U  B  L2 B2 D  NP NP 
005104 Bi U  R  D  Ri B  Ui NP NP 
005105 Bi D2 B2 Li Di B  NP NP NP 
005106 Ui Li U  Bi Li D  Bi NP NP 
005107 B2 D  B  L  D  B2 NP NP NP 
005108 Ui L  U  L2 Bi L  D  Bi NP 
005109 Ui L  U  L2 Bi D  Bi NP NP 
005110 Ui Li U  Bi L2 D  Bi NP NP 
005111 B2 D2 B  R  D  Ri NP NP NP 
005112 B  Li B  Di B  D  NP NP NP 
005113 Bi R  D  R2 B2 R  Bi NP NP 
005114 Ri Bi R  Bi D  B  NP NP NP 
005115 Ui L  U  Bi L2 D  B2 NP NP 
005116 F  Ri U  R  Fi L  NP NP NP 
005117 U2 Ri Ui B  R  Ui Li NP NP 
005118 B  Li B2 Di B  D2 NP NP NP 
005119 Bi R  D  Ri B  NP NP NP NP 
005120 B  Ui L  U  L  Bi NP NP NP 
005121 Ri F  U  Fi L  R  NP NP NP 
005122 Ui Li U  Bi D  Bi NP NP NP 
005123 Ui L  U2 B  Ui L2 B2 NP NP 
005124 U  R  U2 L  F2 U  Di NP NP 
005125 U  R  Di Bi Ri B  Ui NP NP 
005126 Ui L  U  L2 B2 Li D  NP NP 
005127 U  Fi R  F  U2 Di L2 U  NP 
005128 U  B2 U2 Li U  D  B2 NP NP 
005129 Ui Li U  Di B2 Li D  NP NP 
005130 U2 Ri Ui R  Ui L2 D  NP NP 
005131 F2 Ri U  R  F2 NP NP NP NP 
005132 B2 D2 Li R  D  Ri NP NP NP 
005133 B  Li B  Di Li B  D  NP NP 
005134 Ri B2 R2 Di Ri NP NP NP NP 
005135 U  R  B2 Di Ri Ui B2 NP NP 
005136 B2 D2 B2 R  D  Ri D2 NP NP 
005137 F2 U  R  Ui F2 L2 Di NP NP 
005138 U  R  B2 Di Ri B2 Ui NP NP 
005139 Ri B2 R2 Di R2 B  R  NP NP 
005140 F2 U  R  Ui F2 Di NP NP NP 
005141 B2 L2 D  L  D2 B2 Di NP NP 
005142 U  Fi R  F  Ui Di NP NP NP 
005143 Ui Li U  B2 Li D  NP NP NP 
005144 U  R  B2 Di B  Ri B  Ui NP 
005145 Bi D  Bi D  L  B2 NP NP NP 
005146 B  Li B2 Di B  L  Di NP NP 
005147 Bi U  D2 B  Ui Li B2 NP NP 
005148 Bi R  D  Ri B2 D  Bi NP NP 
005149 Bi D  R  D  Ri B  NP NP NP 
005150 Ui Li U  Bi D2 L2 Bi NP NP 
005151 B2 D  B  L  D2 B2 NP NP NP 
005152 Ui L  U  L2 Bi L  D2 Bi NP 
005153 Ui Li U  Bi Li D2 Bi NP NP 
005154 Ri Bi R  B2 D  B  D2 NP NP 
005155 B  Li B2 Di B  Li Di NP NP 
005156 R2 Ui F  Li U  R2 B2 NP NP 
005157 B  Li B  Di B  D2 NP NP NP 
005158 Ui Li U  Bi L2 D2 Bi NP NP 
005159 B2 Di B  D2 L  B2 NP NP NP 
005160 B  Li B2 Di B  Di NP NP NP 
005161 Bi R  D  Ri B  D  NP NP NP 
005162 Ui Li U  D2 Bi D2 Bi NP NP 
005163 U  Fi Bi R  F  Ui D2 NP NP 
005164 Ui Li U  Bi D2 Bi NP NP NP 
005165 Ui L  U2 B  Ui L2 B2 D  NP 
005166 U  R  U2 L  F2 U  NP NP NP 
005167 U2 R  F2 D  Ri U2 Di NP NP 
005168 F2 U  R  Ui F2 L  NP NP NP 
005169 U  Fi R  F  U2 L2 U  NP NP 
005170 F2 U  R  Ui F2 L2 NP NP NP 
005171 U  R  U2 L  F2 U  L  NP NP 
005172 U  B2 U2 Li U  D2 B2 NP NP 
005173 Ui Li U  Di B2 Li D2 NP NP 
005174 F2 U  R  Ui Fi L2 Fi NP NP 
005175 R2 F2 Ui L  F2 R2 D2 NP NP 
005176 U2 Ri Ui R  Ui L2 D2 NP NP 
005177 Ri U  Ri Ui R2 NP NP NP NP 
005178 U  Fi R  F  B2 Ui B2 NP NP 
005179 Ri B2 R2 Di Ri D  NP NP NP 
005180 F2 U  R  Ui F2 Li NP NP NP 
005181 U  R  U2 L  Ui F2 U2 NP NP 
005182 F2 U  R  Ui F2 NP NP NP NP 
005183 B2 L2 D  L  D2 B2 NP NP NP 
005184 U  Fi R  F  Ui NP NP NP NP 
005185 Ui Li U  B2 Li D2 NP NP NP 
005186 U  R  U  Ri F2 D  R  U2 NP 
005187 Ui L  U  B  L2 B2 Di NP NP 
005188 B  Li B2 Di B  L  NP NP NP 
005189 U2 Ri Ui Bi R  Ui L  NP NP 
005190 B  Li B  Di B  Di NP NP NP 
005191 Ui Li U  D2 Bi Di Bi NP NP 
005192 Ui Li U  Bi Di L2 Bi NP NP 
005193 Ri B  Ui Bi U  R  NP NP NP 
005194 B  Li B2 D  B2 D2 B  NP NP 
005195 B  L2 Di L  B2 Di B  NP NP 
005196 Ui L  U  B  L2 B2 L2 Di NP 
005197 B  Li B2 D2 Bi D  B  NP NP 
005198 U  R  B  Ri Bi Ui Li Di NP 
005199 Ui L  U  Bi L2 Di B2 NP NP 
005200 B  Li B2 Di B  Li NP NP NP 
005201 Ui Li U  Bi Li Di Bi NP NP 
005202 B  Li B2 Di B  NP NP NP NP 
005203 U2 Ri Ui Bi R  Ui NP NP NP 
005204 Ui L  U  L2 Bi Di Bi NP NP 
005205 U  Fi Bi R  F  Ui Di NP NP 
005206 Ui Li U  Bi Di Bi NP NP NP 
005207 B  Li B2 U  Di B  Ui NP NP 
005208 U  R  U2 L  F2 U  D  NP NP 
005209 U2 R  F2 D  Ri U2 NP NP NP 
005210 B2 Li R  Di L2 Ri NP NP NP 
005211 U2 R  F2 D  Ri U2 L  NP NP 
005212 Ri B2 R2 Di Ri D2 NP NP NP 
005213 F2 U  R  Ui F2 Li D  NP NP 
005214 F2 U  R  Ui F2 L2 D  NP NP 
005215 B2 Li D  R  D2 Ri NP NP NP 
005216 B2 D2 B2 R  D  Ri NP NP NP 
005217 R  F2 D  L  R2 U  R  NP NP 
005218 U  F2 D2 R  D2 F2 Ui Di NP 
005219 Ui Li U  Di B2 Li Di NP NP 
005220 Ri F  Ui Fi Li R  B2 NP NP 
005221 U2 R  F2 D  Ri U2 L2 NP NP 
005222 B2 Li R  Di Ri NP NP NP NP 
005223 U  R  U2 L  D  F2 U  NP NP 
005224 U2 Ri Ui B2 R  Ui NP NP NP 
005225 U2 Ri F2 R2 D  Ri U2 NP NP 
005226 U  Fi R  F  Ui D  NP NP NP 
005227 Ui Li U  B2 Li Di NP NP NP 
005228 U  R  U2 L  D  F2 Li U  NP 
005229 Ui L  U  B  L2 B2 NP NP NP 
005230 U  Bi R  Bi Ri B  Ui NP NP 
005231 U  R  B  Ri Bi Ui L  NP NP 
005232 Ri Bi R  B2 D  B  NP NP NP 
005233 B2 D  Bi L  D  B2 NP NP NP 
005234 Ui L  U  B  L2 B2 L  NP NP 
005235 B2 D  Bi L  D2 B2 NP NP NP 
005236 B2 Di Bi D2 L  B2 NP NP NP 
005237 B  Li B  Di B  NP NP NP NP 
005238 Ui L  U  B  D  L2 B2 NP NP 
005239 Ri Ui Li U  Bi R  Bi NP NP 
005240 Ui L  U  Bi L  B2 L  B2 NP 
005241 Ui L  U  B  L2 B2 L2 NP NP 
005242 Ri Bi R  B2 D  B  L  NP NP 
005243 U  R  B  Ri Bi Ui Li NP NP 
005244 B  Li B2 Di B  D  NP NP NP 
005245 U  R  B  Ri Bi Ui NP NP NP 
005246 B  U  Bi Ui Li B2 NP NP NP 
005247 U  Fi Bi R  F  Ui NP NP NP 
005248 B2 D  Bi L  B2 NP NP NP NP 
005249 B  U  Bi Ui Li D  B2 NP NP 
005250 Ui Li U  Bi L  Bi NP NP NP 
005251 Ui Li U2 Di B2 Ui NP NP NP 
005252 B2 D  L  D  B2 Li NP NP NP 
005253 B2 D2 R  D  Ri Di NP NP NP 
005254 Ui L  U  L2 B2 NP NP NP NP 
005255 Ui Li U  Bi L2 Bi NP NP NP 
005256 Ui Li U  D2 B2 NP NP NP NP 
005257 Ui L  U  Li D2 Li B2 NP NP 
005258 B2 D2 R  D  Ri NP NP NP NP 
005259 B2 D2 R  D  Ri D  NP NP NP 
005260 Ui L  U  L2 B2 D2 NP NP NP 
005261 Ui Li U  Bi L2 Bi D2 NP NP 
005262 R2 Ui Li U  R2 B2 NP NP NP 
005263 Ui L  U  L2 B2 Di NP NP NP 
005264 U2 Ri Ui R  Ui Li NP NP NP 
005265 Ui L  U  L2 Bi L  Bi NP NP 
005266 Ui Li U  Di B2 NP NP NP NP 
005267 Ui L  U  Li Di Li B2 NP NP 
005268 U  Fi B2 R  F  Ui NP NP NP 
005269 Ui Li U  B2 NP NP NP NP NP 
005270 B  Li B2 L2 U  Bi Ui NP NP 
005271 B  Ui L  U  L  Bi L  NP NP 
005272 B  Li B2 Di B  D2 L  NP NP 
005273 Bi R  D  Ri B  L  NP NP NP 
005274 F2 U  R  Ui F2 B  D  Bi NP 
005275 Fi U  R  Ui Di F  L2 NP NP 
005276 Ri Bi Ui B  U  R  D2 NP NP 
005277 B  Ui Li U  Bi Di B  NP NP 
005278 Ri Bi Ui B  U  R  Di NP NP 
005279 B  Ui L  U  Bi D  L2 NP NP 
005280 B  Ui L  U  Bi D2 L2 NP NP 
005281 Fi U  R  Ui Di F  L2 D2 NP 
005282 Ri Bi Ui B  U  R  NP NP NP 
005283 U  Ri U  Fi R  U2 Bi L2 NP 
005284 Fi U  R  Ui Di F  L2 Di NP 
005285 U  B  R  Bi Ri Ui B  NP NP 
005286 F  Ri U  R  Fi L2 NP NP NP 
005287 U2 Ri Ui B  R  Ui NP NP NP 
005288 Ui L  U  Bi L2 D  B2 L  NP 
005289 Ri F  U  Fi L2 R  NP NP NP 
005290 U  B  U2 Li U  B2 Li NP NP 
005291 Ui L  U2 B  Ui L2 B2 L  NP 
005292 B  L2 Ui Li U  L  Bi NP NP 
005293 U  R  Bi Ri B  Ui NP NP NP 
005294 U2 Ri Ui B  R  Ui L  NP NP 
005295 B  Li B2 Di B  D2 L2 NP NP 
005296 Bi R  D  Ri B  L2 NP NP NP 
005297 Ui Li U  Bi D  L2 Bi NP NP 
005298 U  B  U2 Li U  D2 B2 NP NP 
005299 Fi U  R  Ui Di F  Li D2 NP 
005300 B  Ui L  U  Bi D  Li NP NP 
005301 B  Ui L  U  Bi D2 Li NP NP 
005302 Bi R  D  Ri B  L2 D2 NP NP 
005303 Ri Bi Ui B  U  L  R  NP NP 
005304 Ui L  U  Bi D  L2 B2 NP NP 
005305 Bi R  D  Ri B  L2 Di NP NP 
005306 U  B2 R  Bi Ri Ui B  NP NP 
005307 B  Li B2 D  L2 D2 B  NP NP 
005308 F2 U  B  R  Ui F2 NP NP NP 
005309 Bi D  B2 Li Di Li B  NP NP 
005310 U  Fi B  R  F  Ui NP NP NP 
005311 U  B  U2 Li U  B2 NP NP NP 
005312 Ui L  U2 B  Ui L2 B2 L2 NP 
005313 U  R  U2 Di L  F2 U  NP NP 
005314 U2 F2 D  Ri F2 U2 NP NP NP 
005315 Ui Li U  Di B2 L  NP NP NP 
005316 U2 Ri Ui R  U2 L  U  NP NP 
005317 B2 D  L  D  B2 NP NP NP NP 
005318 Ui L  U  L2 B2 L  D  NP NP 
005319 B2 D  L  D2 B2 NP NP NP NP 
005320 Ui L  U  L2 B2 L  D2 NP NP 
005321 B  Li B  Di L  B  NP NP NP 
005322 B2 L  U  R  Di Ri Ui NP NP 
005323 B2 D  L  D  B2 D2 NP NP NP 
005324 Ui L  U  L2 B2 L  Di NP NP 
005325 U  R  U2 L  Di F2 U  NP NP 
005326 B2 L2 Bi Li Di B  NP NP NP 
005327 Ui L  U  L2 B2 L  NP NP NP 
005328 B2 D  L2 B2 Li B2 NP NP NP 
005329 U2 Ri Ui R  Ui NP NP NP NP 
005330 B2 L  R  Di Ri NP NP NP NP 
005331 U  Fi R  F  Ui D2 L2 NP NP 
005332 B2 D  L  B2 NP NP NP NP NP 
005333 B2 L  Di Ri Bi R  B  NP NP 
005334 Ui L  U  Bi L2 B2 L2 NP NP 
005335 B  Li Bi Di L  B  NP NP NP 
005336 B  L  U  Bi Ui L  NP NP NP 
005337 B  Li Bi Di L2 B  NP NP NP 
005338 B  L  U  Bi Ui L2 NP NP NP 
005339 B  Li Bi Di B  D  NP NP NP 
005340 B  L  U  B  D2 B2 Ui NP NP 
005341 B  Li Bi Di B  D2 NP NP NP 
005342 B2 D2 Bi R  D  Ri NP NP NP 
005343 Ui L  U  Bi L2 B2 Di NP NP 
005344 B  L  U  Bi Ui L2 D2 NP NP 
005345 B  Li Bi Di Li B  NP NP NP 
005346 Ui L  U  Bi L2 B2 NP NP NP 
005347 B  L  U  Bi Ui L2 Di NP NP 
005348 B  Li Bi Di B  NP NP NP NP 
005349 B  L2 Di L  Bi Di B  NP NP 
005350 B  L  U  Bi Ui NP NP NP NP 
005351 Ui L  U  Bi L2 B2 L  NP NP 
005352 B  U  Bi Ui B2 Li B2 NP NP 
005353 B2 D  B  L  B2 NP NP NP NP 
005354 B  L2 D2 L  Bi Di B  NP NP 
005355 U  B2 R  U2 L  F2 U  NP NP 
005356 U  B  R  Bi Ri B  Ui NP NP 
005357 F2 Ri U  Ri U2 R2 F2 NP NP 
005358 Ui Li U2 B2 U2 L  U  NP NP 
005359 U  R  B2 D  Ri Ui B2 NP NP 
005360 R  D  R2 B2 R2 Di Ri NP NP 
005361 F2 U  Ri U  R2 U2 F2 NP NP 
005362 R2 Ui L  F2 Li U  R2 NP NP 
005363 B  Ui L  U  D  L2 Bi NP NP 
005364 B2 Ui L  U  R  Di Ri NP NP 
005365 F2 R  U2 R2 Ui R  F2 NP NP 
005366 U  R  B2 Di Ri Ui D2 B2 NP 
005367 B  L2 Ui D2 Li U  Bi NP NP 
005368 Bi R  Di L2 Ri D2 B  NP NP 
005369 B  Ui L  U  D2 L2 Bi NP NP 
005370 Ui L  U  L2 R  D  Ri B2 NP 
005371 U  B2 U2 Li U  Di B2 NP NP 
005372 Ui Li U  B2 Ui L  U  NP NP 
005373 U  Fi Ri F  D2 B  Ui NP NP 
005374 B  L2 Ui Li U  Bi NP NP NP 
005375 B  Ui L  U  L2 Bi NP NP NP 
005376 B2 L2 B2 NP NP NP NP NP NP 
005377 B  L2 B  Di L2 Bi NP NP NP 
005378 B2 L  B2 Li D  L2 NP NP NP 
005379 R2 U  F2 Ui R2 D2 NP NP NP 
005380 R  Di Ri Di Li Di NP NP NP 
005381 B2 L  B2 L  D2 NP NP NP NP 
005382 R  Di Ri Di Li NP NP NP NP 
005383 B2 L  B2 L  Di NP NP NP NP 
005384 R  D2 L  Ri D2 L2 NP NP NP 
005385 R2 U  F2 Ui R2 NP NP NP NP 
005386 R  Di Ri Di Li D  NP NP NP 
005387 B2 L  B2 L  NP NP NP NP NP 
005388 B2 L  B2 D2 L  NP NP NP NP 
005389 R  Di Ri Di Li D2 NP NP NP 
005390 B2 L  B  L  B  NP NP NP NP 
005391 R2 Ui F2 U  R2 NP NP NP NP 
005392 B2 L  B2 D  L  NP NP NP NP 
005393 B2 L  B2 Li D2 L2 NP NP NP 
005394 U  B2 Ui L2 NP NP NP NP NP 
005395 R  D2 L  Di L2 Ri NP NP NP 
005396 R2 U  F2 Ui Ri D  Ri NP NP 
005397 Bi D  B  L2 B2 L  B2 NP NP 
005398 U2 L  Fi R2 F  Di Li U2 NP 
005399 Bi D  B  L  D  L2 NP NP NP 
005400 Bi D  Li B  NP NP NP NP NP 
005401 Fi R  Di Ri F  D2 NP NP NP 
005402 Bi D  B  Li D2 NP NP NP NP 
005403 Fi R  Di Ri F  Di NP NP NP 
005404 Bi D  B  Li Di NP NP NP NP 
005405 Bi D  Li B  D  NP NP NP NP 
005406 Bi D  Li B  D2 NP NP NP NP 
005407 Fi R  Di Ri F  NP NP NP NP 
005408 Bi D  B  Li NP NP NP NP NP 
005409 Bi D  Li B  Di NP NP NP NP 
005410 U2 Fi R  Di F  U2 NP NP NP 
005411 Bi D  B  Li D  NP NP NP NP 
005412 B  Li Bi L  Bi D  Li NP NP 
005413 Bi D  Li B2 Di Bi NP NP NP 
005414 Bi D  B  L  D2 L2 NP NP NP 
005415 U  B  Ui L  NP NP NP NP NP 
005416 R  Fi Di F  D2 Ri NP NP NP 
005417 Bi D  Li D2 B  NP NP NP NP 
005418 B2 L  B2 Li D2 Li NP NP NP 
005419 Fi R  D2 Ri F  NP NP NP NP 
005420 R  D  L2 Ri D  NP NP NP NP 
005421 Ui L  U2 B2 U2 Li U  NP NP 
005422 B2 L  B2 Li D  Li NP NP NP 
005423 R  D2 Ri NP NP NP NP NP NP 
005424 R  Di Ri Di NP NP NP NP NP 
005425 B2 L  B2 Di L2 NP NP NP NP 
005426 R  D2 L  Ri D2 Li NP NP NP 
005427 R  F  D2 Fi Ri NP NP NP NP 
005428 U2 Fi R  D2 F  U2 NP NP NP 
005429 B2 L  B2 L2 NP NP NP NP NP 
005430 B2 L  B  D  L2 B  NP NP NP 
005431 B2 Li D2 B  D2 B2 NP NP NP 
005432 Bi Ri B  R  D2 B  NP NP NP 
005433 R  Di Ri D  L  D2 NP NP NP 
005434 R  D  L  Ri D  NP NP NP NP 
005435 B2 L  B2 D2 L2 NP NP NP NP 
005436 U  B2 Ui Li NP NP NP NP NP 
005437 R  Bi Li B  D2 Ri NP NP NP 
005438 R  D  Li D2 Ri Di NP NP NP 
005439 U  B  Ui B2 L2 B2 NP NP NP 
005440 B  Li Bi L  Bi D  NP NP NP 
005441 Bi D2 Li B  Di NP NP NP NP 
005442 U2 Fi D2 R2 F  U2 Di NP NP 
005443 Bi D  B  L  D  Li NP NP NP 
005444 Bi D  B2 D2 Bi D2 NP NP NP 
005445 Fi R2 Fi R2 F2 Di NP NP NP 
005446 B2 Di Bi D  B2 D  NP NP NP 
005447 Bi D2 L  B  Di NP NP NP NP 
005448 Bi D2 L2 B  Di NP NP NP NP 
005449 Fi R  Di Ri F  L  NP NP NP 
005450 Bi D  B  NP NP NP NP NP NP 
005451 Bi D2 L2 Di B  NP NP NP NP 
005452 Bi D2 B  Di NP NP NP NP NP 
005453 B2 Di B  D  B2 NP NP NP NP 
005454 U2 Fi R  Di F  U2 L  NP NP 
005455 Bi D2 B  L2 Di NP NP NP NP 
005456 Bi D2 B2 Di Bi NP NP NP NP 
005457 U  B  Ui L2 NP NP NP NP NP 
005458 Bi D2 L  Di B  NP NP NP NP 
005459 Bi D  Li D2 L  B  NP NP NP 
005460 R  Di Ri Fi D2 F  NP NP NP 
005461 Fi R  D2 Ri F  D  NP NP NP 
005462 R  D  L2 Ri D2 NP NP NP NP 
005463 Fi R  D2 Ri F  D  L  NP NP 
005464 R  D  L  Ri D2 L2 NP NP NP 
005465 R  Di Ri Fi Di F  NP NP NP 
005466 R2 U  Ri Di R  Ui R2 NP NP 
005467 R  D  Ri D2 NP NP NP NP NP 
005468 R2 F2 L  Ri F2 D  Ri NP NP 
005469 B2 Di Li B2 D  B2 NP NP NP 
005470 R  Di Ri NP NP NP NP NP NP 
005471 B2 L  B2 Di L2 D  NP NP NP 
005472 R  F  D2 Fi Ri D  NP NP NP 
005473 R  Di Ri Fi D  F  NP NP NP 
005474 B2 L  B2 L2 D  NP NP NP NP 
005475 R  Di Ri U  B  Ui NP NP NP 
005476 R  D  L  Ri D2 NP NP NP NP 
005477 B2 L  B2 D2 L2 D  NP NP NP 
005478 U  R  Di Ri Ui NP NP NP NP 
005479 R  Di F  D2 Fi Ri NP NP NP 
005480 R  D  Li D2 Ri NP NP NP NP 
005481 Bi D2 L2 B  L2 NP NP NP NP 
005482 U2 Fi D  R2 F  U2 NP NP NP 
005483 Bi D2 Li B  NP NP NP NP NP 
005484 Bi D2 L  Bi L2 B2 NP NP NP 
005485 Bi D2 B  NP NP NP NP NP NP 
005486 Bi D2 L2 B  Li NP NP NP NP 
005487 U  Bi U2 Li D2 L  U  NP NP 
005488 Bi D  B2 D2 Bi Di NP NP NP 
005489 U2 Fi D2 R2 F  U2 NP NP NP 
005490 Bi D2 L  B  NP NP NP NP NP 
005491 Fi R2 Fi R2 F2 NP NP NP NP 
005492 Bi D  B2 D  Bi NP NP NP NP 
005493 Bi D2 L2 B  NP NP NP NP NP 
005494 U2 Fi R2 Di F  U2 NP NP NP 
005495 Bi D  B  D  NP NP NP NP NP 
005496 R  D2 F  Li Fi Ri NP NP NP 
005497 Bi D2 B  L2 NP NP NP NP NP 
005498 Bi D2 L2 B  L  NP NP NP NP 
005499 U  Bi Ui D2 NP NP NP NP NP 
005500 Bi D  B  R  D  Ri NP NP NP 
005501 Bi D2 Bi L  B2 NP NP NP NP 
005502 U2 F2 R  F2 U2 Li NP NP NP 
005503 R  Di Ri D  L2 NP NP NP NP 
005504 R  D  L2 Ri Di NP NP NP NP 
005505 R  Di Ri D  Li NP NP NP NP 
005506 R  D  L  Ri Di L2 NP NP NP 
005507 U2 F2 R  F2 U2 NP NP NP NP 
005508 U  B2 U2 Li D2 L  U  NP NP 
005509 U2 Fi D  R  F  U2 NP NP NP 
005510 U2 Fi Ri D2 R2 F  U2 NP NP 
005511 U2 Fi R2 D  Ri F  U2 NP NP 
005512 R  Di Ri B  D  Bi NP NP NP 
005513 R  D  Ri Di NP NP NP NP NP 
005514 U2 F2 R  F2 U2 L  NP NP NP 
005515 R  Di Ri D  NP NP NP NP NP 
005516 Bi Ri B  R  B  NP NP NP NP 
005517 R  Di Ri D  L  NP NP NP NP 
005518 R  D  L  Ri Di NP NP NP NP 
005519 U2 F2 R  F2 U2 L2 NP NP NP 
005520 U  B2 Ui Li D2 NP NP NP NP 
005521 B2 Li B  D2 B  NP NP NP NP 
005522 R  D  Li D2 Ri D  NP NP NP 
005523 Bi D  B  D2 Li NP NP NP NP 
005524 F2 D  Bi Di F2 B  NP NP NP 
005525 Bi D2 Li B  D  NP NP NP NP 
005526 Bi D2 L2 B  D  NP NP NP NP 
005527 Bi Ri Bi R  B  Di NP NP NP 
005528 Bi D  B  D2 NP NP NP NP NP 
005529 Bi Di B  NP NP NP NP NP NP 
005530 B2 Di B  D  B2 D2 NP NP NP 
005531 Bi D2 L2 Di B  D2 NP NP NP 
005532 B  Li B2 L  Di Bi NP NP NP 
005533 Fi Bi Di F  L  B  NP NP NP 
005534 Bi D  B2 D2 Bi NP NP NP NP 
005535 Bi D  B  D2 L  NP NP NP NP 
005536 Fi R2 Fi R2 F2 D  NP NP NP 
005537 B2 Di Bi D  B2 Di NP NP NP 
005538 Bi D2 L2 B  D  L2 NP NP NP 
005539 Bi D2 B  L2 D  NP NP NP NP 
005540 Bi D  B  D2 L2 NP NP NP NP 
005541 U  Bi Ui Di NP NP NP NP NP 
005542 Bi D2 L  Di B  D2 NP NP NP 
005543 Bi D2 Bi L  B2 D  NP NP NP 
005544 Fi R  Di Ri D2 F  NP NP NP 
005545 Fi R  D2 Ri F  Di NP NP NP 
005546 R  D  L2 Ri NP NP NP NP NP 
005547 R  F  D  L2 Fi Ri NP NP NP 
005548 R  D  Li Ri NP NP NP NP NP 
005549 U2 Fi R  D  F  U2 NP NP NP 
005550 U  B  Ui Bi Li Di B  NP NP 
005551 B2 L  B2 L2 Di NP NP NP NP 
005552 R  F  D2 Fi Ri Di NP NP NP 
005553 U2 Fi R  D  Ri F  U2 NP NP 
005554 R  B  D2 Bi Di Ri NP NP NP 
005555 R  F  D  Li Fi Ri NP NP NP 
005556 U2 Fi R  D  F  U2 L  NP NP 
005557 R  F  D  L2 Fi L  Ri NP NP 
005558 R  D  Ri NP NP NP NP NP NP 
005559 R  Di Ri D  L  D  NP NP NP 
005560 R  D  L  Ri NP NP NP NP NP 
005561 B2 L  B2 D2 L2 Di NP NP NP 
005562 U  R  D  Ri Ui NP NP NP NP 
005563 B2 Li B  D2 B  D  NP NP NP 
005564 R  D  Li D2 Ri D2 NP NP NP 
005565 U  Bi Ui B2 L2 B2 NP NP NP 
005566 B  Li Bi L  Bi NP NP NP NP 
005567 B  U  B  Ui B2 NP NP NP NP 
005568 B2 L  B  Li B  NP NP NP NP 
005569 U  Bi Ui Bi D2 B  NP NP NP 
005570 B2 Di Bi D  B2 NP NP NP NP 
005571 Bi Ri Bi R  B  NP NP NP NP 
005572 Bi D  B  Di NP NP NP NP NP 
005573 Bi D2 L2 B  D2 NP NP NP NP 
005574 Bi D2 L2 Di B  Di NP NP NP 
005575 Ri B  R  Bi NP NP NP NP NP 
005576 U  Bi Ui B2 L  B2 NP NP NP 
005577 B  L2 Bi D2 L2 Bi NP NP NP 
005578 B2 L  B  Li B  L  NP NP NP 
005579 B  U  B  Ui B2 L2 NP NP NP 
005580 B2 L  B  Li B  L2 NP NP NP 
005581 Bi D2 B  L2 D2 NP NP NP NP 
005582 B2 Di Bi D  B2 L2 NP NP NP 
005583 U  Bi Ui NP NP NP NP NP NP 
005584 Bi D2 L  Di B  Di NP NP NP 
005585 R  D2 Bi L  B  Ri NP NP NP 
005586 B2 L  B2 D2 Li NP NP NP NP 
005587 B  U  B2 Ui L2 B  NP NP NP 
005588 Ui L  U  L  Di B2 NP NP NP 
005589 R  D2 L  Ri D  NP NP NP NP 
005590 B2 L  B2 D  Li NP NP NP NP 
005591 B2 L  B2 Li D2 NP NP NP NP 
005592 R  Di Ri Di L  NP NP NP NP 
005593 B2 L  B2 Li Di NP NP NP NP 
005594 R  D2 L  Ri D2 NP NP NP NP 
005595 R  D2 L  Ri Di NP NP NP NP 
005596 U  B2 Ui R  Di Ri NP NP NP 
005597 B2 L  B2 Li NP NP NP NP NP 
005598 R  D2 L  Ri NP NP NP NP NP 
005599 R  Di Ri Di L  D2 NP NP NP 
005600 B2 L  B2 Li D  NP NP NP NP 
005601 U  F2 Di B2 D  F2 Ui NP NP 
005602 U2 Fi D2 Ri F  U2 Li NP NP 
005603 B2 L  B2 L  D2 L2 NP NP NP 
005604 U  B2 Ui NP NP NP NP NP NP 
005605 R  D2 L  Di Ri NP NP NP NP 
005606 Ui L  U  L  Di L2 B2 NP NP 
005607 R  D  Ri U  Bi Ui NP NP NP 
005608 U2 Fi R  Di F  U2 L2 NP NP 
005609 Bi D  B  Li D  L2 NP NP NP 
005610 Ri Ui B  U  R2 Di Ri NP NP 
005611 Bi D  B  L2 D  Li NP NP NP 
005612 Bi D  B  L  D2 NP NP NP NP 
005613 U  B  Ui Li Bi Di B  NP NP 
005614 Bi D  B  L  Di NP NP NP NP 
005615 Bi D  Li B  D  L2 NP NP NP 
005616 Bi D  Li B  D2 L2 NP NP NP 
005617 Fi R  Di Ri F  L2 NP NP NP 
005618 Bi D  B  L  NP NP NP NP NP 
005619 Ri Ui B  U  R2 D2 Ri NP NP 
005620 Fi R  Di Ri F  L2 D  NP NP 
005621 Bi D  B  L  D  NP NP NP NP 
005622 B2 Li Bi Di Bi NP NP NP NP 
005623 B2 L  B2 U  B  Ui NP NP NP 
005624 Bi D  B  Li D2 L2 NP NP NP 
005625 U  B  Ui Li NP NP NP NP NP 
005626 Bi D2 L  Di B  L  NP NP NP 
005627 Bi D  Li D2 B  L2 NP NP NP 
005628 Bi D  B  Li D2 Li NP NP NP 
005629 Bi D  L2 B  NP NP NP NP NP 
005630 B2 Di B  D  B2 L2 NP NP NP 
005631 U2 Fi R  Di F  U2 Li NP NP 
005632 U  B  Ui Bi D2 B  NP NP NP 
005633 Bi D  B  L2 D2 NP NP NP NP 
005634 U  B  Ui Bi Di B  NP NP NP 
005635 Bi D  B  L2 Di NP NP NP NP 
005636 Bi D  Li B  D  Li NP NP NP 
005637 Bi D  Li B  D2 Li NP NP NP 
005638 U  B  Ui R  Di Ri NP NP NP 
005639 Bi D  B  L2 NP NP NP NP NP 
005640 Bi D  B  L  D2 L  NP NP NP 
005641 U  F2 Di B  D  F2 Ui NP NP 
005642 Bi D  B  L2 D  NP NP NP NP 
005643 U2 Fi D2 F  Ui B  Ui NP NP 
005644 Bi D  B  L  D  L  NP NP NP 
005645 B  L2 B2 D  L2 D2 Bi NP NP 
005646 U  B  Ui NP NP NP NP NP NP 
005647 Bi D2 L  Di L2 B  NP NP NP 
005648 Bi D  Li D2 Li B  NP NP NP 
005649 B2 L  B2 L  D2 Li NP NP NP 
005650 B2 L  Fi B2 D2 F  NP NP NP 
005651 U2 Fi D2 Ri F  U2 NP NP NP 
005652 B2 L  Fi B2 Di F  NP NP NP 
005653 B2 L  B  D  B  NP NP NP NP 
005654 B2 L  B2 D2 NP NP NP NP NP 
005655 R  Di Ri Di L2 NP NP NP NP 
005656 B2 L  B2 Di NP NP NP NP NP 
005657 B2 L  Ri B2 R  NP NP NP NP 
005658 U2 Fi D  Ri F  U2 NP NP NP 
005659 U2 Fi Ri D2 F  U2 NP NP NP 
005660 B2 L  B2 NP NP NP NP NP NP 
005661 B2 L  Ri B2 R  D2 NP NP NP 
005662 B2 L2 B  Li B  NP NP NP NP 
005663 B2 L  B2 D  NP NP NP NP NP 
005664 B2 L  B2 D  Li Di L  NP NP 
005665 B2 L  B2 Li D  L  NP NP NP 
005666 R  D2 L2 Ri NP NP NP NP NP 
005667 U  B2 Ui L  NP NP NP NP NP 
005668 R  D2 L  Di L  Ri NP NP NP 
005669 B2 L  Ui L2 U  B2 NP NP NP 
005670 U2 Fi D  F  U2 Li NP NP NP 
005671 R  Bi L2 B  Ri NP NP NP NP 
005672 R  D  L2 Di Ri NP NP NP NP 
005673 R  Bi Li B  Ri NP NP NP NP 
005674 U2 L  Di Li U2 NP NP NP NP 
005675 Ui B  D  Bi U  NP NP NP NP 
005676 Ui Li D2 L  U  NP NP NP NP 
005677 Ui B  D2 Bi U  NP NP NP NP 
005678 R  Bi Li B  Ri D  NP NP NP 
005679 R  Bi Li B  Ri D2 NP NP NP 
005680 Ui Li Di L  U  NP NP NP NP 
005681 U2 L  D2 Li U2 NP NP NP NP 
005682 B  L2 D2 L2 Bi NP NP NP NP 
005683 Ui B  Di Bi U  NP NP NP NP 
005684 Ui Li D  L  U  NP NP NP NP 
005685 R2 Di L2 D  R2 NP NP NP NP 
005686 R  D  L  Di Ri NP NP NP NP 
005687 U2 Fi D  F  U2 L2 NP NP NP 
005688 NP NP NP NP NP NP NP NP NP 
005689 B2 Di L  B2 D  Li B2 NP NP 
005690 B2 L  Di B2 Li D  B2 NP NP 
005691 Bi D  Bi L  B2 NP NP NP NP 
005692 B2 L  B  L2 Di B  NP NP NP 
005693 B2 Li B  Di L2 B  NP NP NP 
005694 B2 Li B  Di B  D2 NP NP NP 
005695 B2 Li B  Di Li B  NP NP NP 
005696 U  B  Ui B2 Li B2 NP NP NP 
005697 U  B2 Ui Li Bi Di B  NP NP 
005698 U  B  Ui B2 Li B2 D  NP NP 
005699 R  Di Ri Bi D2 B  NP NP NP 
005700 B2 Li B  Di B  NP NP NP NP 
005701 U  Bi Ui R  Di Ri NP NP NP 
005702 U  B  Ui L2 B2 L  B2 NP NP 
005703 B2 Li B  Di L  B  NP NP NP 
005704 B2 L  B2 U  Bi Ui NP NP NP 
005705 Bi Ri B  R  D  B  NP NP NP 
005706 R  D2 F  Li Fi D  Ri NP NP 
005707 B2 Li B  Di L2 B  Li NP NP 
005708 Bi D  Bi L  B2 Li NP NP NP 
005709 U  R  D  Ri B  Ui NP NP NP 
005710 R  Di Ri Bi Li D2 B  NP NP 
005711 Bi D2 L  B  R  D  Ri NP NP 
005712 B2 L  D  L  Bi NP NP NP NP 
005713 Ui L  U  B2 D  L2 Bi NP NP 
005714 U2 Ri Ui R  Ui L  B  NP NP 
005715 Ui L  U  B2 L2 Bi D  NP NP 
005716 Ui L  U  B2 L2 D2 Bi NP NP 
005717 B2 D  B  L  Bi L2 NP NP NP 
005718 B2 D  L  D2 Bi L  NP NP NP 
005719 B2 L  D  B2 L  Di Bi NP NP 
005720 B  Li B  Di L2 B2 NP NP NP 
005721 B  Li B  Ui L2 U  NP NP NP 
005722 Ui L  U  Bi L2 Bi L2 NP NP 
005723 B2 L  D  Bi L  Bi NP NP NP 
005724 Ui L  U  B2 L2 Bi NP NP NP 
005725 B2 L  D  B2 L  Bi NP NP NP 
005726 B2 D  L  D  Bi L  NP NP NP 
005727 B2 L  R  Di Ri B  L  NP NP 
005728 B2 L  Di B2 D2 L  Bi NP NP 
005729 Ui Li U  B2 L2 B  NP NP NP 
005730 Ui L  U  B2 D2 L2 Bi NP NP 
005731 R2 U  F2 R  Ui B  R  NP NP 
005732 B2 L  D  B  L  Bi NP NP NP 
005733 U  Ri U  Fi R  U2 NP NP NP 
005734 Ui Li U  Bi Li D  Li NP NP 
005735 B  R2 Ui F  L  U  R2 NP NP 
005736 B  Ui L  U  NP NP NP NP NP 
005737 Bi D  B2 Li Di B2 D  NP NP 
005738 B  L2 Ui Li U  L2 NP NP NP 
005739 Ui L  U  L2 Bi D  Li NP NP 
005740 Ui Li U  Bi L2 D  Li NP NP 
005741 B  Ui L  U  D  NP NP NP NP 
005742 B  Ui L  U  D2 NP NP NP NP 
005743 Ui Li U  D2 Bi D  Li NP NP 
005744 B  Ui L  U  R  D  Ri NP NP 
005745 B  Ui L  U  Di NP NP NP NP 
005746 Bi D  B2 Li Di B2 NP NP NP 
005747 B  Ui L  U  F  L2 Fi NP NP 
005748 B  Ui L  U2 Di B2 Ui NP NP 
005749 Ri F  U  Fi R  B  NP NP NP 
005750 U  B  U2 L2 U  L  Bi NP NP 
005751 Ri B  L  F  U  Fi R  NP NP 
005752 B  Ui L  U  R  D2 Ri NP NP 
005753 B  Ui L  U  Bi D2 B  NP NP 
005754 B2 L2 Bi Ui L  U  NP NP NP 
005755 B  Ui L  U  Fi Di F  NP NP 
005756 Ui L  U  L2 B2 Li B  NP NP 
005757 R2 F2 Ui L  F2 R2 B  NP NP 
005758 Fi U  R  Ui B  D2 F  NP NP 
005759 B2 L2 D  L  Bi NP NP NP NP 
005760 B2 D  L  D2 Bi L2 NP NP NP 
005761 B2 Di L2 Bi D2 L  Bi NP NP 
005762 B  Li B  Di Li B2 NP NP NP 
005763 B  Li Bi Di B2 Li NP NP NP 
005764 Ui L  U  Bi L2 Bi Li NP NP 
005765 B  U  Bi Ui B  Li Bi NP NP 
005766 B2 D  B  L  Bi Li NP NP NP 
005767 B2 L  Bi Li Di Li B2 NP NP 
005768 U  R  B2 D2 Ri Ui Bi NP NP 
005769 B2 L  D  B2 L  Bi L  NP NP 
005770 B2 D  L  D  Bi L2 NP NP NP 
005771 U  B2 U2 Li U  Bi NP NP NP 
005772 Ri B2 R2 Di Ri B  Di NP NP 
005773 Ri U  Ri Ui R2 B  D2 NP NP 
005774 B2 L  D  B  L  Bi L  NP NP 
005775 Ui Li U  Bi L  D  NP NP NP 
005776 B  L2 Ui Di Li U  Li NP NP 
005777 Bi D2 B2 Li Di B2 NP NP NP 
005778 Ui Li U  Bi Li D  NP NP NP 
005779 B2 D  B  L  D  Bi NP NP NP 
005780 U  Ri U  Fi R  U2 L  NP NP 
005781 Ui L  U  L2 Bi D  NP NP NP 
005782 Ui Li U  Bi L2 D  NP NP NP 
005783 B  Ui L  U  D  L  NP NP NP 
005784 B  Ui L  U  D2 L  NP NP NP 
005785 Ui Li U  D2 Bi D  NP NP NP 
005786 Ui Li U  Bi Di L2 D2 NP NP 
005787 Bi R  D  Ri B2 NP NP NP NP 
005788 B  Ui L  U  L  NP NP NP NP 
005789 Ui Li U  Bi D2 L2 Di NP NP 
005790 Ui L  U2 B  Ui L2 Bi NP NP 
005791 Ui L  U  L2 Bi L2 D  NP NP 
005792 Ui Li U  Bi D  NP NP NP NP 
005793 Bi R  D  R2 B2 R  NP NP NP 
005794 Ri Bi R  Bi D  B2 NP NP NP 
005795 B  Li B  Di B  D  B  NP NP 
005796 B2 L2 Bi Ui L  U  D  NP NP 
005797 B  Li B  D2 Li D  B2 NP NP 
005798 B  Ui F  L  Fi U  L  NP NP 
005799 B2 D  B  L  Bi Li D  NP NP 
005800 U  B2 U2 Li U  D  Bi NP NP 
005801 B2 D  Li D  L2 Bi L2 NP NP 
005802 B2 D  Li Di L2 D2 Bi NP NP 
005803 B2 Li D  L  Bi NP NP NP NP 
005804 B2 D2 Li R  D  Ri B  NP NP 
005805 U  R  Di Bi Ri Ui B2 NP NP 
005806 B  Ui L  R  Fi Ri U  NP NP 
005807 B2 Li D2 B  Di L  Bi NP NP 
005808 F2 U  R  Ui F2 Di B  NP NP 
005809 B  U  Fi B2 Ri F  Ui NP NP 
005810 B  Ui F  L  Fi U  Li NP NP 
005811 B  U  Fi B2 Ri F  Ui L  NP 
005812 B  Ui F  L  Fi U  NP NP NP 
005813 B2 D  Li D  L2 Bi NP NP NP 
005814 Ri B2 R2 Di Ri B  NP NP NP 
005815 U  R  B2 Di Ri Ui Bi NP NP 
005816 Ri Bi U  Ri F2 Ui R2 NP NP 
005817 Ui Li U  Bi L  D2 NP NP NP 
005818 Ui Li U  D2 Bi D2 L2 NP NP 
005819 Ui L  U  L2 Bi Li D2 NP NP 
005820 Bi R  D  Ri B2 D  NP NP NP 
005821 B  Ui L  U  L  D  NP NP NP 
005822 Ui Li U  Bi D2 L2 NP NP NP 
005823 B2 D  B  L  D2 Bi NP NP NP 
005824 Ui L  U  L2 Bi L  D2 NP NP 
005825 Ui Li U  Bi Li D2 NP NP NP 
005826 B2 Di B  D2 L  Bi NP NP NP 
005827 Ui L  U  L2 Bi D2 NP NP NP 
005828 Ui Li U  Bi L2 D2 NP NP NP 
005829 Ui Li U  Bi D2 Li NP NP NP 
005830 Ui Li U  D2 Bi D2 NP NP NP 
005831 Bi D2 B2 Ui L  U  NP NP NP 
005832 Ui Li U  D2 Bi D2 L  NP NP 
005833 Ui L  U  L2 Bi L2 D2 NP NP 
005834 Ui Li U  Bi D2 NP NP NP NP 
005835 Bi R  D  R2 B2 R  D  NP NP 
005836 R2 Ui F  Li U  R2 Bi NP NP 
005837 Bi R2 U  R  Ui R  D2 NP NP 
005838 U  R  U2 L  F2 U  B  NP NP 
005839 B2 L2 D  L  D2 Bi L2 NP NP 
005840 U  Fi R  F  Ui B  L  NP NP 
005841 B2 L2 D  L  D2 Bi Li NP NP 
005842 U  Fi R  F  Ui B  L2 NP NP 
005843 F2 U  R  Ui F2 B  Li NP NP 
005844 U  B2 U2 Li U  D2 Bi NP NP 
005845 B  Li Di Ri Bi R  Bi NP NP 
005846 F2 Bi Ri B  Ui R  F2 NP NP 
005847 U2 F  Ui R  U2 Fi U  NP NP 
005848 U  Fi R  F  B2 Ui Bi NP NP 
005849 Ri Bi U  Ri Ui R2 NP NP NP 
005850 F2 U  R  Ui F2 B  NP NP NP 
005851 B2 L2 D  L  D2 Bi NP NP NP 
005852 U  Fi R  F  Ui B  Li NP NP 
005853 B2 L2 D  L  D2 Bi L  NP NP 
005854 U  Fi R  F  Ui B  NP NP NP 
005855 B2 D  Li D2 L2 Bi NP NP NP 
005856 Ri B2 R2 Di Ri B  D  NP NP 
005857 Ri U  Ri Ui R2 B  NP NP NP 
005858 B2 Di B  Ri B  R  NP NP NP 
005859 Ui Li U  Bi L  Di NP NP NP 
005860 Ui L  U  L2 Bi Di L2 NP NP 
005861 B  Li B2 Di B2 L2 NP NP NP 
005862 Ui L  U  L2 Bi Di Li NP NP 
005863 Ui Li U  D2 Bi Di NP NP NP 
005864 Ui Li U  Bi Di L2 NP NP NP 
005865 B  Ui L  U  L  D2 NP NP NP 
005866 Ui Li U  Bi D2 L2 D  NP NP 
005867 Bi R  D  Ri B2 D2 NP NP NP 
005868 Ui Li U  Bi Li Di NP NP NP 
005869 Ui L  U  Bi L2 Di Bi NP NP 
005870 Ui L  U  L2 Bi L  Di NP NP 
005871 Ui Li U  Bi Di Li NP NP NP 
005872 Ui L  U  L2 Bi Di NP NP NP 
005873 B  Li B2 Di B2 NP NP NP NP 
005874 Ui L  U  L2 Bi Di L  NP NP 
005875 B  Li B2 Di B2 L  NP NP NP 
005876 Ui Li U  Bi Di NP NP NP NP 
005877 Ri F  Ui Fi Li Bi R  NP NP 
005878 Ri Bi R  Bi D  B2 D2 NP NP 
005879 Bi R2 U  R  Ui R  Di NP NP 
005880 U2 Ri F  Ui R  B2 Ui NP NP 
005881 F2 U  R  Ui F2 B  D  Li NP 
005882 Fi U  R  Ui B  D  F  NP NP 
005883 F2 U  R  Ui F2 B  D  NP NP 
005884 B2 L2 D  L  Bi Di Li NP NP 
005885 U  Fi R  F  Ui B  Li D  NP 
005886 B  Ui Li U  Bi Di B2 NP NP 
005887 F2 U  R  Ui F2 B  Li D  NP 
005888 B  Li Bi Di B2 Li Di NP NP 
005889 U  B  R  Bi Ri Ui B2 NP NP 
005890 U  B2 U2 L  U  Bi L2 Bi NP 
005891 B  U  Bi R  Bi Ri Ui NP NP 
005892 U  Fi Ri F  Ui D2 B2 NP NP 
005893 U2 Ri F  Ui B2 R  Ui NP NP 
005894 B2 L2 D  L  Bi Di NP NP NP 
005895 F2 U  R  Ui F2 B  D  L2 NP 
005896 U  Fi R  F  Ui B  D  NP NP 
005897 U  B2 U2 Li U  Bi Di NP NP 
005898 Ri B2 R2 Di Ri B  D2 NP NP 
005899 Ri U  Ri Ui R2 B  D  NP NP 
005900 B2 Di B  Ri B  R  D  NP NP 
005901 Ui Li U  Bi L  NP NP NP NP 
005902 B2 Di B2 D2 L  Bi NP NP NP 
005903 Ui L  U  L2 Bi Li NP NP NP 
005904 U  B2 Ui B  Ui L  U  NP NP 
005905 Ui L  U  L2 Bi NP NP NP NP 
005906 Ui Li U  Bi L2 NP NP NP NP 
005907 Ui Li U  D2 Bi NP NP NP NP 
005908 Ui L  U  Li D2 Li Bi NP NP 
005909 B  Li D  L  D2 B2 NP NP NP 
005910 B  L2 Di L  Di B2 NP NP NP 
005911 R2 Ui Li U  R2 Bi NP NP NP 
005912 B  Li D  L2 D2 B2 NP NP NP 
005913 Ui Li U  Bi Li NP NP NP NP 
005914 Ui L  U  Li Di Li Bi NP NP 
005915 Ui L  U  L2 Bi L  NP NP NP 
005916 B  Li B2 L  Ui L  U  NP NP 
005917 Ui L  U  L2 Bi L2 NP NP NP 
005918 Ui Li U  Bi NP NP NP NP NP 
005919 Ui L  U  L2 B2 D2 B  NP NP 
005920 Ri Bi R  Bi D  B2 Di NP NP 
005921 Bi R2 U  R  Ui R  NP NP NP 
005922 U  B2 U2 Li U  Bi L  NP NP 
005923 B  Li Bi Di L  B2 NP NP NP 
005924 B2 D  L  D  Bi Li NP NP NP 
005925 Ri Bi R  D  B2 D  NP NP NP 
005926 Ui L  U  L  Bi L  Bi NP NP 
005927 B2 D  L  Di Bi Li NP NP NP 
005928 B2 D  L  D2 Bi Li NP NP NP 
005929 B  Li Bi Di B  D2 B  NP NP 
005930 Ri Bi R  D  B2 D2 NP NP NP 
005931 B  Li Bi Di B2 NP NP NP NP 
005932 Ui L  U  Bi L2 Bi NP NP NP 
005933 B2 L  D  Bi L  Bi L2 NP NP 
005934 Ri Bi R  D  B2 NP NP NP NP 
005935 Ui L  U  Bi L2 Bi D  NP NP 
005936 B  L2 Di L  Bi Di B2 NP NP 
005937 B  L2 D2 L  Bi Di B2 NP NP 
005938 B  U  Bi Ui B2 Li Bi NP NP 
005939 B2 D  B  L  Bi NP NP NP NP 
005940 Ui L  U  B2 D2 L2 Bi L2 NP 
005941 B  Li Bi Di Li B2 NP NP NP 
005942 B2 L  D  B  L  Bi L2 NP NP 
005943 Ui Li U  Bi D  L  NP NP NP 
005944 Bi D  B2 Li Di B2 L2 NP NP 
005945 U2 Ri F  Ui B  R  Ui NP NP 
005946 B  L2 Ui Di Li U  NP NP NP 
005947 U  R  B2 D  Ri Ui Bi NP NP 
005948 Ui Li U  Bi L  D  L  NP NP 
005949 B  L2 Ui D  Li U  NP NP NP 
005950 Ui Li U  Bi L2 D  L  NP NP 
005951 B  Ui L  U  D  L2 NP NP NP 
005952 B  Ui L  U  D2 L2 NP NP NP 
005953 B  L2 Ui D2 Li U  NP NP NP 
005954 B  U  R  Di B2 Ri Ui NP NP 
005955 U  Ri U  Fi R  U2 L2 NP NP 
005956 Ui Li U  Bi Li D  L  NP NP 
005957 B2 D  B  L  D  Bi L  NP NP 
005958 B  Ui L  U  L2 NP NP NP NP 
005959 U  Fi Ri F  D2 B  Ui B  NP 
005960 B  L2 Ui Li U  NP NP NP NP 
005961 B  Ui Li Bi L2 B  U  NP NP 
005962 Ri Bi R  Bi D  B2 L  NP NP 
005963 B  U  R  D  B2 Ri Ui NP NP 
005964 B  L2 Ui Li U  L  NP NP NP 
005965 B  Ui L  U  Li NP NP NP NP 
005966 Ui L  U2 Ri U  F  R  U2 NP 
005967 U  B  Ui B  Ui L  U  NP NP 
005968 U  B  U2 Li U  D  Bi NP NP 
005969 Ui Li U  Bi D  L2 NP NP NP 
005970 U  B  U2 Li U  D2 Bi NP NP 
005971 Ui Li U  Bi L2 D  L2 NP NP 
005972 B  Ui L  U  D  Li NP NP NP 
005973 B  Ui L  U  D2 Li NP NP NP 
005974 Ui L  U  Bi D  L2 Bi NP NP 
005975 Ui Li U  Bi D  L2 D2 NP NP 
005976 Bi R  D  L2 Ri B2 NP NP NP 
005977 B  U  B2 Ri U  R  U2 NP NP 
005978 Ui Li U  Bi U  B2 Ui NP NP 
005979 Ui Li U  Bi Li D  L2 NP NP 
005980 U  Fi B  R  F  Ui B  NP NP 
005981 U  B  U2 Li U  Bi NP NP NP 
005982 Bi R  D  L2 R2 B2 R  NP NP 
005983 Ri Bi R  Bi D  B2 L2 NP NP 
005984 Bi R2 U  R  B2 Ui R  NP NP 
005985 B2 D  B  L  Bi L  NP NP NP 
005986 U2 F2 D  Ri F2 U2 B  NP NP 
005987 Ui Li U  Di B2 L  B  NP NP 
005988 B2 D  L  Di Bi D  NP NP NP 
005989 B2 D  L  D  Bi NP NP NP NP 
005990 U  B2 U2 Li U  Bi L2 NP NP 
005991 B2 D  L  D2 Bi NP NP NP NP 
005992 F  Di B2 D  Fi L  Bi NP NP 
005993 B  Li B  Di L  B2 NP NP NP 
005994 U2 Ri F  Ui R  Ui NP NP NP 
005995 B2 D  L  D  Bi D2 NP NP NP 
005996 B2 L2 Bi Li Di B2 NP NP NP 
005997 B2 D  L  Di Bi NP NP NP NP 
005998 B2 L  R  Di Ri B  NP NP NP 
005999 B2 D  L2 B2 Li Bi NP NP NP 
006000 B2 L  Di Ri Bi R  B2 NP NP 
006001 B2 L  Di B2 Ri B  R  NP NP 
006002 B2 D  L  Bi NP NP NP NP NP 
006003 B2 D  L  D  B2 D2 B  NP NP 
006004 B  Ui Fi Di L  F  U  NP NP 
006005 B2 L  D  B  L  Bi Li NP NP 
006006 Ui L  U  B  L2 Bi NP NP NP 
006007 Ui L  Ui F  U  Fi U  NP NP 
006008 Ri B  R  Ui L  U  L  NP NP 
006009 Ri Bi R  B2 D  B2 NP NP NP 
006010 B2 D  Bi L  D  Bi NP NP NP 
006011 B2 D  Bi L  Bi L2 NP NP NP 
006012 B2 D  Bi L  D2 Bi NP NP NP 
006013 B2 Di Bi D2 L  Bi NP NP NP 
006014 B  Li B  Di B2 NP NP NP NP 
006015 B  Li B  Di B2 D  NP NP NP 
006016 B  U  Bi Ui Li Bi Di NP NP 
006017 Ui L2 Fi D  F  Li U  NP NP 
006018 B  Li B  Di B2 D2 NP NP NP 
006019 B  U  Bi Ui Li Bi NP NP NP 
006020 B2 Di B2 Ri B  R  NP NP NP 
006021 B  U  Bi Ui Li Bi L  NP NP 
006022 Ri B  R  Ui L  U  NP NP NP 
006023 B2 D  Bi L  Bi NP NP NP NP 
006024 Ri Ui Li U  Bi R  NP NP NP 
006025 B  L2 Di Bi Ui Li U  NP NP 
006026 Ui L  U  B  D  L2 Bi NP NP 
006027 U  B  Ri U  Fi R  U2 NP NP 
006028 U2 R  F2 D  Ri U2 B  NP NP 
006029 B  L  F  Ri U  R  Fi NP NP 
006030 B  Ui Li U  Di B2 D  NP NP 
006031 U  B2 U2 L  U  L2 Bi NP NP 
006032 B  Ui Li U  Di B2 Li NP NP 
006033 B2 Ui D  L  U  D2 Bi NP NP 
006034 R2 Ui F2 Li U  R2 Bi NP NP 
006035 Bi U2 R  Di F2 Ri U2 NP NP 
006036 B2 Li R  Di Ri B  NP NP NP 
006037 Ri F  Ui Fi Li R  Bi NP NP 
006038 Bi U  Ri B2 U  R  U2 Di NP 
006039 B  Ui Li U  Di B2 NP NP NP 
006040 R2 U  Fi R  Ui B  R  NP NP 
006041 U2 Ri F  Ui R  Bi Ui NP NP 
006042 B  U  R  U2 L  Di F2 U  NP 
006043 U  Fi R  F  Ui D  B  NP NP 
006044 B2 Ui D  L  U  Bi NP NP NP 
006045 Ui L  U  L2 Bi L  R  Di Ri 
006046 Ui Li U  Bi Li R  Di Ri NP 
006047 B  U  R  U2 D  L  F2 U  NP 
